
========================================================================

** ELF Header Information

    File Name: .\obj\GPIO_OutputInput.axf

    Machine class: ELFCLASS32 (32-bit)
    Data encoding: ELFDATA2LSB (Little endian)
    Header version: EV_CURRENT (Current version)
    Operating System ABI: none
    ABI Version: 0
    File Type: ET_EXEC (Executable) (2)
    Machine: EM_ARM (ARM)

    Image Entry point: 0x000000f1
    Flags: EF_ARM_HASENTRY + EF_ARM_ABI_FLOAT_SOFT (0x05000202)

    ARM ELF revision: 5 (ABI version 2)

    Conforms to Soft float procedure-call standard

    Built with
    Component: ARM Compiler 5.06 update 6 (build 750) Tool: armasm [4d35ec]
    Component: ARM Compiler 5.06 update 6 (build 750) Tool: armlink [4d35ed]

    Header size: 52 bytes (0x34)
    Program header entry size: 32 bytes (0x20)
    Section header entry size: 40 bytes (0x28)

    Program header entries: 1
    Section header entries: 16

    Program header offset: 138544 (0x00021d30)
    Section header offset: 138576 (0x00021d50)

    Section header string table index: 15

========================================================================

** Program header #0 (PT_LOAD) [PF_X + PF_W + PF_R + PF_ARM_ENTRY]
    Size : 12572 bytes (12060 bytes in file)
    Virtual address: 0x00000000 (Alignment 8)


========================================================================

** Section #1 'ER_RO' (SHT_PROGBITS) [SHF_ALLOC + SHF_EXECINSTR]
    Size   : 12044 bytes (alignment 4)
    Address: 0x00000000

    $d.realdata
    RESET
    __Vectors
        0x00000000:    20000210    ...     DCD    536871440
        0x00000004:    000000f1    ....    DCD    241
        0x00000008:    00000111    ....    DCD    273
        0x0000000c:    000000d5    ....    DCD    213
        0x00000010:    00000000    ....    DCD    0
        0x00000014:    00000000    ....    DCD    0
        0x00000018:    00000000    ....    DCD    0
        0x0000001c:    00000000    ....    DCD    0
        0x00000020:    00000000    ....    DCD    0
        0x00000024:    00000000    ....    DCD    0
        0x00000028:    00000000    ....    DCD    0
        0x0000002c:    00000115    ....    DCD    277
        0x00000030:    00000000    ....    DCD    0
        0x00000034:    00000000    ....    DCD    0
        0x00000038:    00000117    ....    DCD    279
        0x0000003c:    00000119    ....    DCD    281
        0x00000040:    0000011b    ....    DCD    283
        0x00000044:    0000011b    ....    DCD    283
        0x00000048:    0000011b    ....    DCD    283
        0x0000004c:    0000011b    ....    DCD    283
        0x00000050:    0000011b    ....    DCD    283
        0x00000054:    0000011b    ....    DCD    283
        0x00000058:    0000011b    ....    DCD    283
        0x0000005c:    0000011b    ....    DCD    283
        0x00000060:    0000011b    ....    DCD    283
        0x00000064:    0000011b    ....    DCD    283
        0x00000068:    0000011b    ....    DCD    283
        0x0000006c:    0000011b    ....    DCD    283
        0x00000070:    0000011b    ....    DCD    283
        0x00000074:    0000011b    ....    DCD    283
        0x00000078:    0000011b    ....    DCD    283
        0x0000007c:    0000011b    ....    DCD    283
        0x00000080:    0000011b    ....    DCD    283
        0x00000084:    0000011b    ....    DCD    283
        0x00000088:    0000011b    ....    DCD    283
        0x0000008c:    0000011b    ....    DCD    283
        0x00000090:    0000011b    ....    DCD    283
        0x00000094:    0000011b    ....    DCD    283
        0x00000098:    0000011b    ....    DCD    283
        0x0000009c:    0000011b    ....    DCD    283
        0x000000a0:    0000011b    ....    DCD    283
        0x000000a4:    0000011b    ....    DCD    283
        0x000000a8:    0000011b    ....    DCD    283
        0x000000ac:    0000011b    ....    DCD    283
        0x000000b0:    0000011b    ....    DCD    283
        0x000000b4:    0000011b    ....    DCD    283
        0x000000b8:    0000011b    ....    DCD    283
        0x000000bc:    0000011b    ....    DCD    283
    $t
    .ARM.Collect$$$$00000000
    .ARM.Collect$$$$00000001
    __main
    _main_stk
        0x000000c0:    4803        .H      LDR      r0,__lit__00000000 ; [0xd0] = 0x20000210
        0x000000c2:    4685        .F      MOV      sp,r0
    .ARM.Collect$$$$00000004
    _main_scatterload
        0x000000c4:    f000f880    ....    BL       __scatterload ; 0x1c8
    .ARM.Collect$$$$00000008
    .ARM.Collect$$$$0000000A
    .ARM.Collect$$$$0000000B
    __main_after_scatterload
    _main_clock
    _main_cpp_init
    _main_init
        0x000000c8:    4800        .H      LDR      r0,[pc,#0] ; [0xcc] = 0x12b5
        0x000000ca:    4700        .G      BX       r0
    $d
        0x000000cc:    000012b5    ....    DCD    4789
    .ARM.Collect$$$$00002712
    __lit__00000000
    .ARM.Collect$$$$0000000D
    .ARM.Collect$$$$0000000F
    __rt_final_cpp
    __rt_final_exit
        0x000000d0:    20000210    ...     DCD    536871440
    $t
    .emb_text
    HardFault_Handler
        0x000000d4:    2004        .       MOVS     r0,#4
        0x000000d6:    4671        qF      MOV      r1,lr
        0x000000d8:    4208        .B      TST      r0,r1
        0x000000da:    d002        ..      BEQ      0xe2 ; HardFault_Handler + 14
        0x000000dc:    f3ef8009    ....    MRS      r0,PSP
        0x000000e0:    e001        ..      B        0xe6 ; HardFault_Handler + 18
        0x000000e2:    f3ef8008    ....    MRS      r0,MSP
        0x000000e6:    4671        qF      MOV      r1,lr
        0x000000e8:    4a00        .J      LDR      r2,[pc,#0] ; [0xec] = 0x5ad
        0x000000ea:    4710        .G      BX       r2
    $d
        0x000000ec:    000005ad    ....    DCD    1453
    $t
    .text
    Reset_Handler
        0x000000f0:    480a        .H      LDR      r0,[pc,#40] ; [0x11c] = 0x50000100
        0x000000f2:    490b        .I      LDR      r1,[pc,#44] ; [0x120] = 0x59
        0x000000f4:    6001        .`      STR      r1,[r0,#0]
        0x000000f6:    490b        .I      LDR      r1,[pc,#44] ; [0x124] = 0x16
        0x000000f8:    6001        .`      STR      r1,[r0,#0]
        0x000000fa:    490b        .I      LDR      r1,[pc,#44] ; [0x128] = 0x88
        0x000000fc:    6001        .`      STR      r1,[r0,#0]
        0x000000fe:    4a0b        .J      LDR      r2,[pc,#44] ; [0x12c] = 0x50000024
        0x00000100:    490b        .I      LDR      r1,[pc,#44] ; [0x130] = 0x5aa5
        0x00000102:    6011        .`      STR      r1,[r2,#0]
        0x00000104:    2100        .!      MOVS     r1,#0
        0x00000106:    6001        .`      STR      r1,[r0,#0]
        0x00000108:    480a        .H      LDR      r0,[pc,#40] ; [0x134] = 0xeed
        0x0000010a:    4780        .G      BLX      r0
        0x0000010c:    480a        .H      LDR      r0,[pc,#40] ; [0x138] = 0xc1
        0x0000010e:    4700        .G      BX       r0
    NMI_Handler
        0x00000110:    e7fe        ..      B        NMI_Handler ; 0x110
        0x00000112:    e7fe        ..      B        0x112 ; NMI_Handler + 2
    SVC_Handler
        0x00000114:    e7fe        ..      B        SVC_Handler ; 0x114
    PendSV_Handler
        0x00000116:    e7fe        ..      B        PendSV_Handler ; 0x116
    SysTick_Handler
        0x00000118:    e7fe        ..      B        SysTick_Handler ; 0x118
    Default_Handler
    ACMP01_IRQHandler
    ACMP23_IRQHandler
    ADC_IRQHandler
    BOD_IRQHandler
    EINT0_IRQHandler
    EINT1_IRQHandler
    GPIOP0P1_IRQHandler
    GPIOP2P3P4_IRQHandler
    I2C0_IRQHandler
    I2C1_IRQHandler
    PWMA_IRQHandler
    PWMB_IRQHandler
    PWRWU_IRQHandler
    RTC_IRQHandler
    SPI0_IRQHandler
    SPI1_IRQHandler
    TMR0_IRQHandler
    TMR1_IRQHandler
    TMR2_IRQHandler
    TMR3_IRQHandler
    UART0_IRQHandler
    UART1_IRQHandler
    WDT_IRQHandler
        0x0000011a:    e7fe        ..      B        Default_Handler ; 0x11a
    $d
        0x0000011c:    50000100    ...P    DCD    1342177536
        0x00000120:    00000059    Y...    DCD    89
        0x00000124:    00000016    ....    DCD    22
        0x00000128:    00000088    ....    DCD    136
        0x0000012c:    50000024    $..P    DCD    1342177316
        0x00000130:    00005aa5    .Z..    DCD    23205
        0x00000134:    00000eed    ....    DCD    3821
        0x00000138:    000000c1    ....    DCD    193
    $t
    .text
    __aeabi_uidiv
    __aeabi_uidivmod
        0x0000013c:    b530        0.      PUSH     {r4,r5,lr}
        0x0000013e:    460b        .F      MOV      r3,r1
        0x00000140:    4601        .F      MOV      r1,r0
        0x00000142:    2000        .       MOVS     r0,#0
        0x00000144:    2220         "      MOVS     r2,#0x20
        0x00000146:    2401        .$      MOVS     r4,#1
        0x00000148:    e009        ..      B        0x15e ; __aeabi_uidiv + 34
        0x0000014a:    460d        .F      MOV      r5,r1
        0x0000014c:    40d5        .@      LSRS     r5,r5,r2
        0x0000014e:    429d        .B      CMP      r5,r3
        0x00000150:    d305        ..      BCC      0x15e ; __aeabi_uidiv + 34
        0x00000152:    461d        .F      MOV      r5,r3
        0x00000154:    4095        .@      LSLS     r5,r5,r2
        0x00000156:    1b49        I.      SUBS     r1,r1,r5
        0x00000158:    4625        %F      MOV      r5,r4
        0x0000015a:    4095        .@      LSLS     r5,r5,r2
        0x0000015c:    1940        @.      ADDS     r0,r0,r5
        0x0000015e:    4615        .F      MOV      r5,r2
        0x00000160:    1e52        R.      SUBS     r2,r2,#1
        0x00000162:    2d00        .-      CMP      r5,#0
        0x00000164:    dcf1        ..      BGT      0x14a ; __aeabi_uidiv + 14
        0x00000166:    bd30        0.      POP      {r4,r5,pc}
    .text
    __aeabi_uldivmod
        0x00000168:    b5f0        ..      PUSH     {r4-r7,lr}
        0x0000016a:    b41f        ..      PUSH     {r0-r4}
        0x0000016c:    4606        .F      MOV      r6,r0
        0x0000016e:    2000        .       MOVS     r0,#0
        0x00000170:    b082        ..      SUB      sp,sp,#8
        0x00000172:    4605        .F      MOV      r5,r0
        0x00000174:    2440        @$      MOVS     r4,#0x40
        0x00000176:    9101        ..      STR      r1,[sp,#4]
        0x00000178:    9000        ..      STR      r0,[sp,#0]
        0x0000017a:    e01b        ..      B        0x1b4 ; __aeabi_uldivmod + 76
        0x0000017c:    9901        ..      LDR      r1,[sp,#4]
        0x0000017e:    4622        "F      MOV      r2,r4
        0x00000180:    460f        .F      MOV      r7,r1
        0x00000182:    4630        0F      MOV      r0,r6
        0x00000184:    f000f842    ..B.    BL       __aeabi_llsr ; 0x20c
        0x00000188:    9a04        ..      LDR      r2,[sp,#0x10]
        0x0000018a:    9b05        ..      LDR      r3,[sp,#0x14]
        0x0000018c:    1a80        ..      SUBS     r0,r0,r2
        0x0000018e:    4199        .A      SBCS     r1,r1,r3
        0x00000190:    d310        ..      BCC      0x1b4 ; __aeabi_uldivmod + 76
        0x00000192:    4610        .F      MOV      r0,r2
        0x00000194:    4619        .F      MOV      r1,r3
        0x00000196:    4622        "F      MOV      r2,r4
        0x00000198:    f000f828    ..(.    BL       __aeabi_llsl ; 0x1ec
        0x0000019c:    1a36        6.      SUBS     r6,r6,r0
        0x0000019e:    418f        .A      SBCS     r7,r7,r1
        0x000001a0:    9701        ..      STR      r7,[sp,#4]
        0x000001a2:    4622        "F      MOV      r2,r4
        0x000001a4:    2001        .       MOVS     r0,#1
        0x000001a6:    2100        .!      MOVS     r1,#0
        0x000001a8:    9f00        ..      LDR      r7,[sp,#0]
        0x000001aa:    f000f81f    ....    BL       __aeabi_llsl ; 0x1ec
        0x000001ae:    1838        8.      ADDS     r0,r7,r0
        0x000001b0:    414d        MA      ADCS     r5,r5,r1
        0x000001b2:    9000        ..      STR      r0,[sp,#0]
        0x000001b4:    4620         F      MOV      r0,r4
        0x000001b6:    1e64        d.      SUBS     r4,r4,#1
        0x000001b8:    2800        .(      CMP      r0,#0
        0x000001ba:    dcdf        ..      BGT      0x17c ; __aeabi_uldivmod + 20
        0x000001bc:    9b01        ..      LDR      r3,[sp,#4]
        0x000001be:    9800        ..      LDR      r0,[sp,#0]
        0x000001c0:    4629        )F      MOV      r1,r5
        0x000001c2:    4632        2F      MOV      r2,r6
        0x000001c4:    b007        ..      ADD      sp,sp,#0x1c
        0x000001c6:    bdf0        ..      POP      {r4-r7,pc}
    .text
    __scatterload
    __scatterload_rt2
        0x000001c8:    4c06        .L      LDR      r4,[pc,#24] ; [0x1e4] = 0x2eec
        0x000001ca:    2501        .%      MOVS     r5,#1
        0x000001cc:    4e06        .N      LDR      r6,[pc,#24] ; [0x1e8] = 0x2f0c
        0x000001ce:    e005        ..      B        0x1dc ; __scatterload + 20
        0x000001d0:    68e3        .h      LDR      r3,[r4,#0xc]
        0x000001d2:    cc07        ..      LDM      r4!,{r0-r2}
        0x000001d4:    432b        +C      ORRS     r3,r3,r5
        0x000001d6:    3c0c        .<      SUBS     r4,r4,#0xc
        0x000001d8:    4798        .G      BLX      r3
        0x000001da:    3410        .4      ADDS     r4,r4,#0x10
        0x000001dc:    42b4        .B      CMP      r4,r6
        0x000001de:    d3f7        ..      BCC      0x1d0 ; __scatterload + 8
        0x000001e0:    f7ffff72    ..r.    BL       __main_after_scatterload ; 0xc8
    $d
        0x000001e4:    00002eec    ....    DCD    12012
        0x000001e8:    00002f0c    ./..    DCD    12044
    $t
    .text
    __aeabi_llsl
    _ll_shift_l
        0x000001ec:    b510        ..      PUSH     {r4,lr}
        0x000001ee:    2a20         *      CMP      r2,#0x20
        0x000001f0:    db04        ..      BLT      0x1fc ; __aeabi_llsl + 16
        0x000001f2:    4601        .F      MOV      r1,r0
        0x000001f4:    3a20         :      SUBS     r2,r2,#0x20
        0x000001f6:    4091        .@      LSLS     r1,r1,r2
        0x000001f8:    2000        .       MOVS     r0,#0
        0x000001fa:    bd10        ..      POP      {r4,pc}
        0x000001fc:    4091        .@      LSLS     r1,r1,r2
        0x000001fe:    2320         #      MOVS     r3,#0x20
        0x00000200:    1a9c        ..      SUBS     r4,r3,r2
        0x00000202:    4603        .F      MOV      r3,r0
        0x00000204:    40e3        .@      LSRS     r3,r3,r4
        0x00000206:    4319        .C      ORRS     r1,r1,r3
        0x00000208:    4090        .@      LSLS     r0,r0,r2
        0x0000020a:    bd10        ..      POP      {r4,pc}
    .text
    __aeabi_llsr
    _ll_ushift_r
        0x0000020c:    b510        ..      PUSH     {r4,lr}
        0x0000020e:    2a20         *      CMP      r2,#0x20
        0x00000210:    db04        ..      BLT      0x21c ; __aeabi_llsr + 16
        0x00000212:    4608        .F      MOV      r0,r1
        0x00000214:    3a20         :      SUBS     r2,r2,#0x20
        0x00000216:    40d0        .@      LSRS     r0,r0,r2
        0x00000218:    2100        .!      MOVS     r1,#0
        0x0000021a:    bd10        ..      POP      {r4,pc}
        0x0000021c:    460b        .F      MOV      r3,r1
        0x0000021e:    40d3        .@      LSRS     r3,r3,r2
        0x00000220:    40d0        .@      LSRS     r0,r0,r2
        0x00000222:    2420         $      MOVS     r4,#0x20
        0x00000224:    1aa2        ..      SUBS     r2,r4,r2
        0x00000226:    4091        .@      LSLS     r1,r1,r2
        0x00000228:    4308        .C      ORRS     r0,r0,r1
        0x0000022a:    4619        .F      MOV      r1,r3
        0x0000022c:    bd10        ..      POP      {r4,pc}
        0x0000022e:    0000        ..      MOVS     r0,r0
    i.CLK_EnableModuleClock
    CLK_EnableModuleClock
        0x00000230:    0f81        ..      LSRS     r1,r0,#30
        0x00000232:    008a        ..      LSLS     r2,r1,#2
        0x00000234:    4904        .I      LDR      r1,[pc,#16] ; [0x248] = 0x50000200
        0x00000236:    1851        Q.      ADDS     r1,r2,r1
        0x00000238:    684a        Jh      LDR      r2,[r1,#4]
        0x0000023a:    06c3        ..      LSLS     r3,r0,#27
        0x0000023c:    0edb        ..      LSRS     r3,r3,#27
        0x0000023e:    2001        .       MOVS     r0,#1
        0x00000240:    4098        .@      LSLS     r0,r0,r3
        0x00000242:    4302        .C      ORRS     r2,r2,r0
        0x00000244:    604a        J`      STR      r2,[r1,#4]
        0x00000246:    4770        pG      BX       lr
    $d
        0x00000248:    50000200    ...P    DCD    1342177792
    $t
    i.CLK_EnablePLL
    CLK_EnablePLL
        0x0000024c:    b5f0        ..      PUSH     {r4-r7,lr}
        0x0000024e:    0007        ..      MOVS     r7,r0
        0x00000250:    460c        .F      MOV      r4,r1
        0x00000252:    4858        XH      LDR      r0,[pc,#352] ; [0x3b4] = 0x50000200
        0x00000254:    b085        ..      SUB      sp,sp,#0x14
        0x00000256:    4956        VI      LDR      r1,[pc,#344] ; [0x3b0] = 0x10000
        0x00000258:    6201        .b      STR      r1,[r0,#0x20]
        0x0000025a:    4d57        WM      LDR      r5,[pc,#348] ; [0x3b8] = 0xb71b00
        0x0000025c:    6801        .h      LDR      r1,[r0,#0]
        0x0000025e:    d013        ..      BEQ      0x288 ; CLK_EnablePLL + 60
        0x00000260:    2204        ."      MOVS     r2,#4
        0x00000262:    4311        .C      ORRS     r1,r1,r2
        0x00000264:    6001        .`      STR      r1,[r0,#0]
        0x00000266:    2010        .       MOVS     r0,#0x10
        0x00000268:    f000f986    ....    BL       CLK_WaitClockReady ; 0x578
        0x0000026c:    2001        .       MOVS     r0,#1
        0x0000026e:    04c0        ..      LSLS     r0,r0,#19
        0x00000270:    9000        ..      STR      r0,[sp,#0]
        0x00000272:    4852        RH      LDR      r0,[pc,#328] ; [0x3bc] = 0x1518000
        0x00000274:    2604        .&      MOVS     r6,#4
        0x00000276:    9001        ..      STR      r0,[sp,#4]
        0x00000278:    4851        QH      LDR      r0,[pc,#324] ; [0x3c0] = 0xfa0a1eff
        0x0000027a:    4952        RI      LDR      r1,[pc,#328] ; [0x3c4] = 0x5f5e0ff
        0x0000027c:    1820         .      ADDS     r0,r4,r0
        0x0000027e:    4288        .B      CMP      r0,r1
        0x00000280:    d80d        ..      BHI      0x29e ; CLK_EnablePLL + 82
        0x00000282:    2000        .       MOVS     r0,#0
        0x00000284:    9002        ..      STR      r0,[sp,#8]
        0x00000286:    e01b        ..      B        0x2c0 ; CLK_EnablePLL + 116
        0x00000288:    2201        ."      MOVS     r2,#1
        0x0000028a:    4311        .C      ORRS     r1,r1,r2
        0x0000028c:    6001        .`      STR      r1,[r0,#0]
        0x0000028e:    4610        .F      MOV      r0,r2
        0x00000290:    f000f972    ..r.    BL       CLK_WaitClockReady ; 0x578
        0x00000294:    2000        .       MOVS     r0,#0
        0x00000296:    2602        .&      MOVS     r6,#2
        0x00000298:    9501        ..      STR      r5,[sp,#4]
        0x0000029a:    9000        ..      STR      r0,[sp,#0]
        0x0000029c:    e7ec        ..      B        0x278 ; CLK_EnablePLL + 44
        0x0000029e:    484a        JH      LDR      r0,[pc,#296] ; [0x3c8] = 0xfd050f7f
        0x000002a0:    494a        JI      LDR      r1,[pc,#296] ; [0x3cc] = 0x2faf07f
        0x000002a2:    1820         .      ADDS     r0,r4,r0
        0x000002a4:    4288        .B      CMP      r0,r1
        0x000002a6:    d803        ..      BHI      0x2b0 ; CLK_EnablePLL + 100
        0x000002a8:    2001        .       MOVS     r0,#1
        0x000002aa:    0064        d.      LSLS     r4,r4,#1
        0x000002ac:    9002        ..      STR      r0,[sp,#8]
        0x000002ae:    e007        ..      B        0x2c0 ; CLK_EnablePLL + 116
        0x000002b0:    4847        GH      LDR      r0,[pc,#284] ; [0x3d0] = 0xfe8287c0
        0x000002b2:    1821        !.      ADDS     r1,r4,r0
        0x000002b4:    4240        @B      RSBS     r0,r0,#0
        0x000002b6:    4281        .B      CMP      r1,r0
        0x000002b8:    d848        H.      BHI      0x34c ; CLK_EnablePLL + 256
        0x000002ba:    2003        .       MOVS     r0,#3
        0x000002bc:    00a4        ..      LSLS     r4,r4,#2
        0x000002be:    9002        ..      STR      r0,[sp,#8]
        0x000002c0:    2000        .       MOVS     r0,#0
        0x000002c2:    2500        .%      MOVS     r5,#0
        0x000002c4:    43ed        .C      MVNS     r5,r5
        0x000002c6:    4607        .F      MOV      r7,r0
        0x000002c8:    9003        ..      STR      r0,[sp,#0xc]
        0x000002ca:    2e21        !.      CMP      r6,#0x21
        0x000002cc:    d823        #.      BHI      0x316 ; CLK_EnablePLL + 202
        0x000002ce:    4631        1F      MOV      r1,r6
        0x000002d0:    9801        ..      LDR      r0,[sp,#4]
        0x000002d2:    f7ffff33    ..3.    BL       __aeabi_uidiv ; 0x13c
        0x000002d6:    493f        ?I      LDR      r1,[pc,#252] ; [0x3d4] = 0xffe795ff
        0x000002d8:    4684        .F      MOV      r12,r0
        0x000002da:    1841        A.      ADDS     r1,r0,r1
        0x000002dc:    483e        >H      LDR      r0,[pc,#248] ; [0x3d8] = 0xcc77bf
        0x000002de:    4281        .B      CMP      r1,r0
        0x000002e0:    d216        ..      BCS      0x310 ; CLK_EnablePLL + 196
        0x000002e2:    4b3e        >K      LDR      r3,[pc,#248] ; [0x3dc] = 0x5f5e100
        0x000002e4:    2102        .!      MOVS     r1,#2
        0x000002e6:    4662        bF      MOV      r2,r12
        0x000002e8:    483d        =H      LDR      r0,[pc,#244] ; [0x3e0] = 0xfa0a1f00
        0x000002ea:    434a        JC      MULS     r2,r1,r2
        0x000002ec:    1810        ..      ADDS     r0,r2,r0
        0x000002ee:    4298        .B      CMP      r0,r3
        0x000002f0:    d80a        ..      BHI      0x308 ; CLK_EnablePLL + 188
        0x000002f2:    42a2        .B      CMP      r2,r4
        0x000002f4:    d901        ..      BLS      0x2fa ; CLK_EnablePLL + 174
        0x000002f6:    1b10        ..      SUBS     r0,r2,r4
        0x000002f8:    e000        ..      B        0x2fc ; CLK_EnablePLL + 176
        0x000002fa:    1aa0        ..      SUBS     r0,r4,r2
        0x000002fc:    42a8        .B      CMP      r0,r5
        0x000002fe:    d203        ..      BCS      0x308 ; CLK_EnablePLL + 188
        0x00000300:    0005        ..      MOVS     r5,r0
        0x00000302:    460f        .F      MOV      r7,r1
        0x00000304:    9603        ..      STR      r6,[sp,#0xc]
        0x00000306:    d003        ..      BEQ      0x310 ; CLK_EnablePLL + 196
        0x00000308:    4836        6H      LDR      r0,[pc,#216] ; [0x3e4] = 0x201
        0x0000030a:    1c49        I.      ADDS     r1,r1,#1
        0x0000030c:    4281        .B      CMP      r1,r0
        0x0000030e:    d9ea        ..      BLS      0x2e6 ; CLK_EnablePLL + 154
        0x00000310:    1c76        v.      ADDS     r6,r6,#1
        0x00000312:    2e21        !.      CMP      r6,#0x21
        0x00000314:    d9db        ..      BLS      0x2ce ; CLK_EnablePLL + 130
        0x00000316:    9802        ..      LDR      r0,[sp,#8]
        0x00000318:    9900        ..      LDR      r1,[sp,#0]
        0x0000031a:    0380        ..      LSLS     r0,r0,#14
        0x0000031c:    4308        .C      ORRS     r0,r0,r1
        0x0000031e:    9903        ..      LDR      r1,[sp,#0xc]
        0x00000320:    2201        ."      MOVS     r2,#1
        0x00000322:    0249        I.      LSLS     r1,r1,#9
        0x00000324:    0292        ..      LSLS     r2,r2,#10
        0x00000326:    1a89        ..      SUBS     r1,r1,r2
        0x00000328:    4308        .C      ORRS     r0,r0,r1
        0x0000032a:    1eb9        ..      SUBS     r1,r7,#2
        0x0000032c:    4308        .C      ORRS     r0,r0,r1
        0x0000032e:    4921        !I      LDR      r1,[pc,#132] ; [0x3b4] = 0x50000200
        0x00000330:    6208        .b      STR      r0,[r1,#0x20]
        0x00000332:    2004        .       MOVS     r0,#4
        0x00000334:    f000f920    .. .    BL       CLK_WaitClockReady ; 0x578
        0x00000338:    9902        ..      LDR      r1,[sp,#8]
        0x0000033a:    9803        ..      LDR      r0,[sp,#0xc]
        0x0000033c:    1c49        I.      ADDS     r1,r1,#1
        0x0000033e:    4341        AC      MULS     r1,r0,r1
        0x00000340:    9801        ..      LDR      r0,[sp,#4]
        0x00000342:    f7fffefb    ....    BL       __aeabi_uidiv ; 0x13c
        0x00000346:    4378        xC      MULS     r0,r7,r0
        0x00000348:    b005        ..      ADD      sp,sp,#0x14
        0x0000034a:    bdf0        ..      POP      {r4-r7,pc}
        0x0000034c:    2f00        ./      CMP      r7,#0
        0x0000034e:    d010        ..      BEQ      0x372 ; CLK_EnablePLL + 294
        0x00000350:    4818        .H      LDR      r0,[pc,#96] ; [0x3b4] = 0x50000200
        0x00000352:    4925        %I      LDR      r1,[pc,#148] ; [0x3e8] = 0x8d66f
        0x00000354:    6201        .b      STR      r1,[r0,#0x20]
        0x00000356:    2004        .       MOVS     r0,#4
        0x00000358:    f000f90e    ....    BL       CLK_WaitClockReady ; 0x578
        0x0000035c:    a023        #.      ADR      r0,{pc}+0x90 ; 0x3ec
        0x0000035e:    6800        .h      LDR      r0,[r0,#0]
        0x00000360:    9000        ..      STR      r0,[sp,#0]
        0x00000362:    4814        .H      LDR      r0,[pc,#80] ; [0x3b4] = 0x50000200
        0x00000364:    6a01        .j      LDR      r1,[r0,#0x20]
        0x00000366:    1300        ..      ASRS     r0,r0,#12
        0x00000368:    4201        .B      TST      r1,r0
        0x0000036a:    d006        ..      BEQ      0x37a ; CLK_EnablePLL + 302
        0x0000036c:    2000        .       MOVS     r0,#0
        0x0000036e:    b005        ..      ADD      sp,sp,#0x14
        0x00000370:    bdf0        ..      POP      {r4-r7,pc}
        0x00000372:    4810        .H      LDR      r0,[pc,#64] ; [0x3b4] = 0x50000200
        0x00000374:    491e        .I      LDR      r1,[pc,#120] ; [0x3f0] = 0xc22e
        0x00000376:    6201        .b      STR      r1,[r0,#0x20]
        0x00000378:    e7ed        ..      B        0x356 ; CLK_EnablePLL + 266
        0x0000037a:    0308        ..      LSLS     r0,r1,#12
        0x0000037c:    d500        ..      BPL      0x380 ; CLK_EnablePLL + 308
        0x0000037e:    4d0f        .M      LDR      r5,[pc,#60] ; [0x3bc] = 0x1518000
        0x00000380:    0388        ..      LSLS     r0,r1,#14
        0x00000382:    d502        ..      BPL      0x38a ; CLK_EnablePLL + 318
        0x00000384:    4628        (F      MOV      r0,r5
        0x00000386:    b005        ..      ADD      sp,sp,#0x14
        0x00000388:    bdf0        ..      POP      {r4-r7,pc}
        0x0000038a:    0408        ..      LSLS     r0,r1,#16
        0x0000038c:    0f80        ..      LSRS     r0,r0,#30
        0x0000038e:    466a        jF      MOV      r2,sp
        0x00000390:    5c10        .\      LDRB     r0,[r2,r0]
        0x00000392:    05ca        ..      LSLS     r2,r1,#23
        0x00000394:    0489        ..      LSLS     r1,r1,#18
        0x00000396:    0ec9        ..      LSRS     r1,r1,#27
        0x00000398:    1c89        ..      ADDS     r1,r1,#2
        0x0000039a:    0dd2        ..      LSRS     r2,r2,#23
        0x0000039c:    4341        AC      MULS     r1,r0,r1
        0x0000039e:    08a8        ..      LSRS     r0,r5,#2
        0x000003a0:    1c92        ..      ADDS     r2,r2,#2
        0x000003a2:    4350        PC      MULS     r0,r2,r0
        0x000003a4:    f7fffeca    ....    BL       __aeabi_uidiv ; 0x13c
        0x000003a8:    0080        ..      LSLS     r0,r0,#2
        0x000003aa:    b005        ..      ADD      sp,sp,#0x14
        0x000003ac:    bdf0        ..      POP      {r4-r7,pc}
    $d
        0x000003ae:    0000        ..      DCW    0
        0x000003b0:    00010000    ....    DCD    65536
        0x000003b4:    50000200    ...P    DCD    1342177792
        0x000003b8:    00b71b00    ....    DCD    12000000
        0x000003bc:    01518000    ..Q.    DCD    22118400
        0x000003c0:    fa0a1eff    ....    DCD    4194967295
        0x000003c4:    05f5e0ff    ....    DCD    99999999
        0x000003c8:    fd050f7f    ....    DCD    4244967295
        0x000003cc:    02faf07f    ....    DCD    49999999
        0x000003d0:    fe8287c0    ....    DCD    4269967296
        0x000003d4:    ffe795ff    ....    DCD    4293367295
        0x000003d8:    00cc77bf    .w..    DCD    13399999
        0x000003dc:    05f5e100    ....    DCD    100000000
        0x000003e0:    fa0a1f00    ....    DCD    4194967296
        0x000003e4:    00000201    ....    DCD    513
        0x000003e8:    0008d66f    o...    DCD    579183
        0x000003ec:    04020201    ....    DCD    67240449
        0x000003f0:    0000c22e    ....    DCD    49710
    $t
    i.CLK_EnableXtalRC
    CLK_EnableXtalRC
        0x000003f4:    4902        .I      LDR      r1,[pc,#8] ; [0x400] = 0x50000200
        0x000003f6:    680a        .h      LDR      r2,[r1,#0]
        0x000003f8:    4302        .C      ORRS     r2,r2,r0
        0x000003fa:    600a        .`      STR      r2,[r1,#0]
        0x000003fc:    4770        pG      BX       lr
    $d
        0x000003fe:    0000        ..      DCW    0
        0x00000400:    50000200    ...P    DCD    1342177792
    $t
    i.CLK_GetPLLClockFreq
    CLK_GetPLLClockFreq
        0x00000404:    b508        ..      PUSH     {r3,lr}
        0x00000406:    a011        ..      ADR      r0,{pc}+0x46 ; 0x44c
        0x00000408:    6800        .h      LDR      r0,[r0,#0]
        0x0000040a:    9000        ..      STR      r0,[sp,#0]
        0x0000040c:    4810        .H      LDR      r0,[pc,#64] ; [0x450] = 0x50000200
        0x0000040e:    6a01        .j      LDR      r1,[r0,#0x20]
        0x00000410:    1300        ..      ASRS     r0,r0,#12
        0x00000412:    4201        .B      TST      r1,r0
        0x00000414:    d001        ..      BEQ      0x41a ; CLK_GetPLLClockFreq + 22
        0x00000416:    2000        .       MOVS     r0,#0
        0x00000418:    bd08        ..      POP      {r3,pc}
        0x0000041a:    0308        ..      LSLS     r0,r1,#12
        0x0000041c:    d501        ..      BPL      0x422 ; CLK_GetPLLClockFreq + 30
        0x0000041e:    480d        .H      LDR      r0,[pc,#52] ; [0x454] = 0x1518000
        0x00000420:    e000        ..      B        0x424 ; CLK_GetPLLClockFreq + 32
        0x00000422:    480d        .H      LDR      r0,[pc,#52] ; [0x458] = 0xb71b00
        0x00000424:    038a        ..      LSLS     r2,r1,#14
        0x00000426:    d4f7        ..      BMI      0x418 ; CLK_GetPLLClockFreq + 20
        0x00000428:    040a        ..      LSLS     r2,r1,#16
        0x0000042a:    0f92        ..      LSRS     r2,r2,#30
        0x0000042c:    466b        kF      MOV      r3,sp
        0x0000042e:    5c9b        .\      LDRB     r3,[r3,r2]
        0x00000430:    05ca        ..      LSLS     r2,r1,#23
        0x00000432:    0489        ..      LSLS     r1,r1,#18
        0x00000434:    0dd2        ..      LSRS     r2,r2,#23
        0x00000436:    0ec9        ..      LSRS     r1,r1,#27
        0x00000438:    1c89        ..      ADDS     r1,r1,#2
        0x0000043a:    0880        ..      LSRS     r0,r0,#2
        0x0000043c:    1c92        ..      ADDS     r2,r2,#2
        0x0000043e:    4359        YC      MULS     r1,r3,r1
        0x00000440:    4350        PC      MULS     r0,r2,r0
        0x00000442:    f7fffe7b    ..{.    BL       __aeabi_uidiv ; 0x13c
        0x00000446:    0080        ..      LSLS     r0,r0,#2
        0x00000448:    bd08        ..      POP      {r3,pc}
    $d
        0x0000044a:    0000        ..      DCW    0
        0x0000044c:    04020201    ....    DCD    67240449
        0x00000450:    50000200    ...P    DCD    1342177792
        0x00000454:    01518000    ..Q.    DCD    22118400
        0x00000458:    00b71b00    ....    DCD    12000000
    $t
    i.CLK_SetCoreClock
    CLK_SetCoreClock
        0x0000045c:    b5f8        ..      PUSH     {r3-r7,lr}
        0x0000045e:    4d1b        .M      LDR      r5,[pc,#108] ; [0x4cc] = 0x50000200
        0x00000460:    4604        .F      MOV      r4,r0
        0x00000462:    68ee        .h      LDR      r6,[r5,#0xc]
        0x00000464:    2010        .       MOVS     r0,#0x10
        0x00000466:    4006        .@      ANDS     r6,r6,r0
        0x00000468:    4819        .H      LDR      r0,[pc,#100] ; [0x4d0] = 0x2faf080
        0x0000046a:    4284        .B      CMP      r4,r0
        0x0000046c:    d802        ..      BHI      0x474 ; CLK_SetCoreClock + 24
        0x0000046e:    1040        @.      ASRS     r0,r0,#1
        0x00000470:    4284        .B      CMP      r4,r0
        0x00000472:    d200        ..      BCS      0x476 ; CLK_SetCoreClock + 26
        0x00000474:    4604        .F      MOV      r4,r0
        0x00000476:    6828        (h      LDR      r0,[r5,#0]
        0x00000478:    2704        .'      MOVS     r7,#4
        0x0000047a:    4338        8C      ORRS     r0,r0,r7
        0x0000047c:    6028        (`      STR      r0,[r5,#0]
        0x0000047e:    2010        .       MOVS     r0,#0x10
        0x00000480:    f000f87a    ..z.    BL       CLK_WaitClockReady ; 0x578
        0x00000484:    6928        (i      LDR      r0,[r5,#0x10]
        0x00000486:    2107        .!      MOVS     r1,#7
        0x00000488:    4308        .C      ORRS     r0,r0,r1
        0x0000048a:    6128        (a      STR      r0,[r5,#0x10]
        0x0000048c:    69a8        .i      LDR      r0,[r5,#0x18]
        0x0000048e:    0900        ..      LSRS     r0,r0,#4
        0x00000490:    0100        ..      LSLS     r0,r0,#4
        0x00000492:    61a8        .a      STR      r0,[r5,#0x18]
        0x00000494:    68e8        .h      LDR      r0,[r5,#0xc]
        0x00000496:    4621        !F      MOV      r1,r4
        0x00000498:    07c0        ..      LSLS     r0,r0,#31
        0x0000049a:    d004        ..      BEQ      0x4a6 ; CLK_SetCoreClock + 74
        0x0000049c:    2000        .       MOVS     r0,#0
        0x0000049e:    f7fffed5    ....    BL       CLK_EnablePLL ; 0x24c
        0x000004a2:    4604        .F      MOV      r4,r0
        0x000004a4:    e007        ..      B        0x4b6 ; CLK_SetCoreClock + 90
        0x000004a6:    2001        .       MOVS     r0,#1
        0x000004a8:    04c0        ..      LSLS     r0,r0,#19
        0x000004aa:    f7fffecf    ....    BL       CLK_EnablePLL ; 0x24c
        0x000004ae:    68ee        .h      LDR      r6,[r5,#0xc]
        0x000004b0:    4604        .F      MOV      r4,r0
        0x000004b2:    2010        .       MOVS     r0,#0x10
        0x000004b4:    4006        .@      ANDS     r6,r6,r0
        0x000004b6:    2100        .!      MOVS     r1,#0
        0x000004b8:    2002        .       MOVS     r0,#2
        0x000004ba:    f000f80b    ....    BL       CLK_SetHCLK ; 0x4d4
        0x000004be:    2e00        ..      CMP      r6,#0
        0x000004c0:    d102        ..      BNE      0x4c8 ; CLK_SetCoreClock + 108
        0x000004c2:    6828        (h      LDR      r0,[r5,#0]
        0x000004c4:    43b8        .C      BICS     r0,r0,r7
        0x000004c6:    6028        (`      STR      r0,[r5,#0]
        0x000004c8:    4620         F      MOV      r0,r4
        0x000004ca:    bdf8        ..      POP      {r3-r7,pc}
    $d
        0x000004cc:    50000200    ...P    DCD    1342177792
        0x000004d0:    02faf080    ....    DCD    50000000
    $t
    i.CLK_SetHCLK
    CLK_SetHCLK
        0x000004d4:    b5f3        ..      PUSH     {r0,r1,r4-r7,lr}
        0x000004d6:    4c12        .L      LDR      r4,[pc,#72] ; [0x520] = 0x50000200
        0x000004d8:    b081        ..      SUB      sp,sp,#4
        0x000004da:    68e5        .h      LDR      r5,[r4,#0xc]
        0x000004dc:    460f        .F      MOV      r7,r1
        0x000004de:    2010        .       MOVS     r0,#0x10
        0x000004e0:    4005        .@      ANDS     r5,r5,r0
        0x000004e2:    6820         h      LDR      r0,[r4,#0]
        0x000004e4:    2604        .&      MOVS     r6,#4
        0x000004e6:    4330        0C      ORRS     r0,r0,r6
        0x000004e8:    6020         `      STR      r0,[r4,#0]
        0x000004ea:    2010        .       MOVS     r0,#0x10
        0x000004ec:    f000f844    ..D.    BL       CLK_WaitClockReady ; 0x578
        0x000004f0:    6920         i      LDR      r0,[r4,#0x10]
        0x000004f2:    2107        .!      MOVS     r1,#7
        0x000004f4:    4308        .C      ORRS     r0,r0,r1
        0x000004f6:    6120         a      STR      r0,[r4,#0x10]
        0x000004f8:    69a0        .i      LDR      r0,[r4,#0x18]
        0x000004fa:    0900        ..      LSRS     r0,r0,#4
        0x000004fc:    0100        ..      LSLS     r0,r0,#4
        0x000004fe:    4338        8C      ORRS     r0,r0,r7
        0x00000500:    61a0        .a      STR      r0,[r4,#0x18]
        0x00000502:    6920         i      LDR      r0,[r4,#0x10]
        0x00000504:    4388        .C      BICS     r0,r0,r1
        0x00000506:    9901        ..      LDR      r1,[sp,#4]
        0x00000508:    4308        .C      ORRS     r0,r0,r1
        0x0000050a:    6120         a      STR      r0,[r4,#0x10]
        0x0000050c:    f000fca6    ....    BL       SystemCoreClockUpdate ; 0xe5c
        0x00000510:    2d00        .-      CMP      r5,#0
        0x00000512:    d102        ..      BNE      0x51a ; CLK_SetHCLK + 70
        0x00000514:    6820         h      LDR      r0,[r4,#0]
        0x00000516:    43b0        .C      BICS     r0,r0,r6
        0x00000518:    6020         `      STR      r0,[r4,#0]
        0x0000051a:    b003        ..      ADD      sp,sp,#0xc
        0x0000051c:    bdf0        ..      POP      {r4-r7,pc}
    $d
        0x0000051e:    0000        ..      DCW    0
        0x00000520:    50000200    ...P    DCD    1342177792
    $t
    i.CLK_SetModuleClock
    CLK_SetModuleClock
        0x00000524:    b470        p.      PUSH     {r4-r6}
        0x00000526:    0e43        C.      LSRS     r3,r0,#25
        0x00000528:    075b        [.      LSLS     r3,r3,#29
        0x0000052a:    d00d        ..      BEQ      0x548 ; CLK_SetModuleClock + 36
        0x0000052c:    0083        ..      LSLS     r3,r0,#2
        0x0000052e:    0f9b        ..      LSRS     r3,r3,#30
        0x00000530:    4c0f        .L      LDR      r4,[pc,#60] ; [0x570] = 0x50000210
        0x00000532:    009b        ..      LSLS     r3,r3,#2
        0x00000534:    191b        ..      ADDS     r3,r3,r4
        0x00000536:    681c        .h      LDR      r4,[r3,#0]
        0x00000538:    0105        ..      LSLS     r5,r0,#4
        0x0000053a:    0f6d        m.      LSRS     r5,r5,#29
        0x0000053c:    01c6        ..      LSLS     r6,r0,#7
        0x0000053e:    0ef6        ..      LSRS     r6,r6,#27
        0x00000540:    40b5        .@      LSLS     r5,r5,r6
        0x00000542:    43ac        .C      BICS     r4,r4,r5
        0x00000544:    430c        .C      ORRS     r4,r4,r1
        0x00000546:    601c        .`      STR      r4,[r3,#0]
        0x00000548:    0a83        ..      LSRS     r3,r0,#10
        0x0000054a:    0619        ..      LSLS     r1,r3,#24
        0x0000054c:    0e09        ..      LSRS     r1,r1,#24
        0x0000054e:    d00c        ..      BEQ      0x56a ; CLK_SetModuleClock + 70
        0x00000550:    0301        ..      LSLS     r1,r0,#12
        0x00000552:    0f89        ..      LSRS     r1,r1,#30
        0x00000554:    4c07        .L      LDR      r4,[pc,#28] ; [0x574] = 0x50000218
        0x00000556:    0089        ..      LSLS     r1,r1,#2
        0x00000558:    1909        ..      ADDS     r1,r1,r4
        0x0000055a:    680c        .h      LDR      r4,[r1,#0]
        0x0000055c:    0580        ..      LSLS     r0,r0,#22
        0x0000055e:    b2db        ..      UXTB     r3,r3
        0x00000560:    0ec0        ..      LSRS     r0,r0,#27
        0x00000562:    4083        .@      LSLS     r3,r3,r0
        0x00000564:    439c        .C      BICS     r4,r4,r3
        0x00000566:    4314        .C      ORRS     r4,r4,r2
        0x00000568:    600c        .`      STR      r4,[r1,#0]
        0x0000056a:    bc70        p.      POP      {r4-r6}
        0x0000056c:    4770        pG      BX       lr
    $d
        0x0000056e:    0000        ..      DCW    0
        0x00000570:    50000210    ...P    DCD    1342177808
        0x00000574:    50000218    ...P    DCD    1342177816
    $t
    i.CLK_WaitClockReady
    CLK_WaitClockReady
        0x00000578:    b410        ..      PUSH     {r4}
        0x0000057a:    4a0b        .J      LDR      r2,[pc,#44] ; [0x5a8] = 0x50000200
        0x0000057c:    4909        .I      LDR      r1,[pc,#36] ; [0x5a4] = 0x124f80
        0x0000057e:    68d3        .h      LDR      r3,[r2,#0xc]
        0x00000580:    4604        .F      MOV      r4,r0
        0x00000582:    4398        .C      BICS     r0,r0,r3
        0x00000584:    d00a        ..      BEQ      0x59c ; CLK_WaitClockReady + 36
        0x00000586:    460b        .F      MOV      r3,r1
        0x00000588:    1e49        I.      SUBS     r1,r1,#1
        0x0000058a:    2b00        .+      CMP      r3,#0
        0x0000058c:    dc02        ..      BGT      0x594 ; CLK_WaitClockReady + 28
        0x0000058e:    bc10        ..      POP      {r4}
        0x00000590:    2000        .       MOVS     r0,#0
        0x00000592:    4770        pG      BX       lr
        0x00000594:    68d3        .h      LDR      r3,[r2,#0xc]
        0x00000596:    4620         F      MOV      r0,r4
        0x00000598:    4398        .C      BICS     r0,r0,r3
        0x0000059a:    d1f4        ..      BNE      0x586 ; CLK_WaitClockReady + 14
        0x0000059c:    bc10        ..      POP      {r4}
        0x0000059e:    2001        .       MOVS     r0,#1
        0x000005a0:    4770        pG      BX       lr
    $d
        0x000005a2:    0000        ..      DCW    0
        0x000005a4:    00124f80    .O..    DCD    1200000
        0x000005a8:    50000200    ...P    DCD    1342177792
    $t
    i.Hard_Fault_Handler
    Hard_Fault_Handler
    __tagsym$$used
        0x000005ac:    4604        .F      MOV      r4,r0
        0x000005ae:    a012        ..      ADR      r0,{pc}+0x4a ; 0x5f8
        0x000005b0:    f000fce2    ....    BL       __0printf$5 ; 0xf78
        0x000005b4:    a016        ..      ADR      r0,{pc}+0x5c ; 0x610
        0x000005b6:    6821        !h      LDR      r1,[r4,#0]
        0x000005b8:    f000fcde    ....    BL       __0printf$5 ; 0xf78
        0x000005bc:    a017        ..      ADR      r0,{pc}+0x60 ; 0x61c
        0x000005be:    6861        ah      LDR      r1,[r4,#4]
        0x000005c0:    f000fcda    ....    BL       __0printf$5 ; 0xf78
        0x000005c4:    a018        ..      ADR      r0,{pc}+0x64 ; 0x628
        0x000005c6:    68a1        .h      LDR      r1,[r4,#8]
        0x000005c8:    f000fcd6    ....    BL       __0printf$5 ; 0xf78
        0x000005cc:    a019        ..      ADR      r0,{pc}+0x68 ; 0x634
        0x000005ce:    68e1        .h      LDR      r1,[r4,#0xc]
        0x000005d0:    f000fcd2    ....    BL       __0printf$5 ; 0xf78
        0x000005d4:    a01a        ..      ADR      r0,{pc}+0x6c ; 0x640
        0x000005d6:    6921        !i      LDR      r1,[r4,#0x10]
        0x000005d8:    f000fcce    ....    BL       __0printf$5 ; 0xf78
        0x000005dc:    a01b        ..      ADR      r0,{pc}+0x70 ; 0x64c
        0x000005de:    6961        ai      LDR      r1,[r4,#0x14]
        0x000005e0:    f000fcca    ....    BL       __0printf$5 ; 0xf78
        0x000005e4:    a01c        ..      ADR      r0,{pc}+0x74 ; 0x658
        0x000005e6:    69a1        .i      LDR      r1,[r4,#0x18]
        0x000005e8:    f000fcc6    ....    BL       __0printf$5 ; 0xf78
        0x000005ec:    a01d        ..      ADR      r0,{pc}+0x78 ; 0x664
        0x000005ee:    69e1        .i      LDR      r1,[r4,#0x1c]
        0x000005f0:    f000fcc2    ....    BL       __0printf$5 ; 0xf78
        0x000005f4:    e7fe        ..      B        0x5f4 ; Hard_Fault_Handler + 72
    $d
        0x000005f6:    0000        ..      DCW    0
        0x000005f8:    48206e49    In H    DCD    1210084937
        0x000005fc:    20647261    ard     DCD    543453793
        0x00000600:    6c756146    Faul    DCD    1819631942
        0x00000604:    61482074    t Ha    DCD    1632116852
        0x00000608:    656c646e    ndle    DCD    1701602414
        0x0000060c:    00000a72    r...    DCD    2674
        0x00000610:    20203072    r0      DCD    538980466
        0x00000614:    7830203d    = 0x    DCD    2016419901
        0x00000618:    000a7825    %x..    DCD    686117
        0x0000061c:    20203172    r1      DCD    538980722
        0x00000620:    7830203d    = 0x    DCD    2016419901
        0x00000624:    000a7825    %x..    DCD    686117
        0x00000628:    20203272    r2      DCD    538980978
        0x0000062c:    7830203d    = 0x    DCD    2016419901
        0x00000630:    000a7825    %x..    DCD    686117
        0x00000634:    20203372    r3      DCD    538981234
        0x00000638:    7830203d    = 0x    DCD    2016419901
        0x0000063c:    000a7825    %x..    DCD    686117
        0x00000640:    20323172    r12     DCD    540160370
        0x00000644:    7830203d    = 0x    DCD    2016419901
        0x00000648:    000a7825    %x..    DCD    686117
        0x0000064c:    2020726c    lr      DCD    538997356
        0x00000650:    7830203d    = 0x    DCD    2016419901
        0x00000654:    000a7825    %x..    DCD    686117
        0x00000658:    20206370    pc      DCD    538993520
        0x0000065c:    7830203d    = 0x    DCD    2016419901
        0x00000660:    000a7825    %x..    DCD    686117
        0x00000664:    20727370    psr     DCD    544371568
        0x00000668:    7830203d    = 0x    DCD    2016419901
        0x0000066c:    000a7825    %x..    DCD    686117
    $t
    i.LCD_Address_Set
    LCD_Address_Set
        0x00000670:    b5f0        ..      PUSH     {r4-r7,lr}
        0x00000672:    4606        .F      MOV      r6,r0
        0x00000674:    461f        .F      MOV      r7,r3
        0x00000676:    4615        .F      MOV      r5,r2
        0x00000678:    460c        .F      MOV      r4,r1
        0x0000067a:    202a        *       MOVS     r0,#0x2a
        0x0000067c:    f000fa70    ..p.    BL       LCD_WR_REG ; 0xb60
        0x00000680:    0430        0.      LSLS     r0,r6,#16
        0x00000682:    0e00        ..      LSRS     r0,r0,#24
        0x00000684:    f000fa78    ..x.    BL       LCD_Writ_Bus ; 0xb78
        0x00000688:    b2f0        ..      UXTB     r0,r6
        0x0000068a:    f000fa75    ..u.    BL       LCD_Writ_Bus ; 0xb78
        0x0000068e:    0428        (.      LSLS     r0,r5,#16
        0x00000690:    0e00        ..      LSRS     r0,r0,#24
        0x00000692:    f000fa71    ..q.    BL       LCD_Writ_Bus ; 0xb78
        0x00000696:    b2e8        ..      UXTB     r0,r5
        0x00000698:    f000fa6e    ..n.    BL       LCD_Writ_Bus ; 0xb78
        0x0000069c:    202b        +       MOVS     r0,#0x2b
        0x0000069e:    f000fa5f    .._.    BL       LCD_WR_REG ; 0xb60
        0x000006a2:    0420         .      LSLS     r0,r4,#16
        0x000006a4:    0e00        ..      LSRS     r0,r0,#24
        0x000006a6:    f000fa67    ..g.    BL       LCD_Writ_Bus ; 0xb78
        0x000006aa:    b2e0        ..      UXTB     r0,r4
        0x000006ac:    f000fa64    ..d.    BL       LCD_Writ_Bus ; 0xb78
        0x000006b0:    0438        8.      LSLS     r0,r7,#16
        0x000006b2:    0e00        ..      LSRS     r0,r0,#24
        0x000006b4:    f000fa60    ..`.    BL       LCD_Writ_Bus ; 0xb78
        0x000006b8:    b2f8        ..      UXTB     r0,r7
        0x000006ba:    f000fa5d    ..].    BL       LCD_Writ_Bus ; 0xb78
        0x000006be:    202c        ,       MOVS     r0,#0x2c
        0x000006c0:    f000fa4e    ..N.    BL       LCD_WR_REG ; 0xb60
        0x000006c4:    bdf0        ..      POP      {r4-r7,pc}
    i.LCD_Fill
    LCD_Fill
        0x000006c6:    b5ff        ..      PUSH     {r0-r7,lr}
        0x000006c8:    b081        ..      SUB      sp,sp,#4
        0x000006ca:    461f        .F      MOV      r7,r3
        0x000006cc:    4616        .F      MOV      r6,r2
        0x000006ce:    460d        .F      MOV      r5,r1
        0x000006d0:    1e5b        [.      SUBS     r3,r3,#1
        0x000006d2:    1e52        R.      SUBS     r2,r2,#1
        0x000006d4:    9801        ..      LDR      r0,[sp,#4]
        0x000006d6:    f7ffffcb    ....    BL       LCD_Address_Set ; 0x670
        0x000006da:    42bd        .B      CMP      r5,r7
        0x000006dc:    d20b        ..      BCS      0x6f6 ; LCD_Fill + 48
        0x000006de:    9c01        ..      LDR      r4,[sp,#4]
        0x000006e0:    42b4        .B      CMP      r4,r6
        0x000006e2:    d205        ..      BCS      0x6f0 ; LCD_Fill + 42
        0x000006e4:    980a        ..      LDR      r0,[sp,#0x28]
        0x000006e6:    f000fa31    ..1.    BL       LCD_WR_DATA ; 0xb4c
        0x000006ea:    1c64        d.      ADDS     r4,r4,#1
        0x000006ec:    42b4        .B      CMP      r4,r6
        0x000006ee:    d3f9        ..      BCC      0x6e4 ; LCD_Fill + 30
        0x000006f0:    1c6d        m.      ADDS     r5,r5,#1
        0x000006f2:    42bd        .B      CMP      r5,r7
        0x000006f4:    d3f3        ..      BCC      0x6de ; LCD_Fill + 24
        0x000006f6:    b005        ..      ADD      sp,sp,#0x14
        0x000006f8:    bdf0        ..      POP      {r4-r7,pc}
    i.LCD_ShowChinese
    LCD_ShowChinese
        0x000006fa:    b5ff        ..      PUSH     {r0-r7,lr}
        0x000006fc:    b083        ..      SUB      sp,sp,#0xc
        0x000006fe:    7810        .x      LDRB     r0,[r2,#0]
        0x00000700:    9e0c        ..      LDR      r6,[sp,#0x30]
        0x00000702:    9d0e        ..      LDR      r5,[sp,#0x38]
        0x00000704:    9c0d        ..      LDR      r4,[sp,#0x34]
        0x00000706:    4617        .F      MOV      r7,r2
        0x00000708:    2800        .(      CMP      r0,#0
        0x0000070a:    d017        ..      BEQ      0x73c ; LCD_ShowChinese + 66
        0x0000070c:    2c0c        .,      CMP      r4,#0xc
        0x0000070e:    d017        ..      BEQ      0x740 ; LCD_ShowChinese + 70
        0x00000710:    2c10        .,      CMP      r4,#0x10
        0x00000712:    d01f        ..      BEQ      0x754 ; LCD_ShowChinese + 90
        0x00000714:    2c18        .,      CMP      r4,#0x18
        0x00000716:    d027        '.      BEQ      0x768 ; LCD_ShowChinese + 110
        0x00000718:    2c20         ,      CMP      r4,#0x20
        0x0000071a:    d10f        ..      BNE      0x73c ; LCD_ShowChinese + 66
        0x0000071c:    9401        ..      STR      r4,[sp,#4]
        0x0000071e:    9600        ..      STR      r6,[sp,#0]
        0x00000720:    9502        ..      STR      r5,[sp,#8]
        0x00000722:    463a        :F      MOV      r2,r7
        0x00000724:    9b06        ..      LDR      r3,[sp,#0x18]
        0x00000726:    9904        ..      LDR      r1,[sp,#0x10]
        0x00000728:    9803        ..      LDR      r0,[sp,#0xc]
        0x0000072a:    f000f995    ....    BL       LCD_ShowChinese32x32 ; 0xa58
        0x0000072e:    9803        ..      LDR      r0,[sp,#0xc]
        0x00000730:    1900        ..      ADDS     r0,r0,r4
        0x00000732:    9003        ..      STR      r0,[sp,#0xc]
        0x00000734:    78b8        .x      LDRB     r0,[r7,#2]
        0x00000736:    1cbf        ..      ADDS     r7,r7,#2
        0x00000738:    2800        .(      CMP      r0,#0
        0x0000073a:    d1e7        ..      BNE      0x70c ; LCD_ShowChinese + 18
        0x0000073c:    b007        ..      ADD      sp,sp,#0x1c
        0x0000073e:    bdf0        ..      POP      {r4-r7,pc}
        0x00000740:    9401        ..      STR      r4,[sp,#4]
        0x00000742:    9600        ..      STR      r6,[sp,#0]
        0x00000744:    9502        ..      STR      r5,[sp,#8]
        0x00000746:    463a        :F      MOV      r2,r7
        0x00000748:    9b06        ..      LDR      r3,[sp,#0x18]
        0x0000074a:    9904        ..      LDR      r1,[sp,#0x10]
        0x0000074c:    9803        ..      LDR      r0,[sp,#0xc]
        0x0000074e:    f000f815    ....    BL       LCD_ShowChinese12x12 ; 0x77c
        0x00000752:    e7ec        ..      B        0x72e ; LCD_ShowChinese + 52
        0x00000754:    9401        ..      STR      r4,[sp,#4]
        0x00000756:    9600        ..      STR      r6,[sp,#0]
        0x00000758:    9502        ..      STR      r5,[sp,#8]
        0x0000075a:    463a        :F      MOV      r2,r7
        0x0000075c:    9b06        ..      LDR      r3,[sp,#0x18]
        0x0000075e:    9904        ..      LDR      r1,[sp,#0x10]
        0x00000760:    9803        ..      LDR      r0,[sp,#0xc]
        0x00000762:    f000f885    ....    BL       LCD_ShowChinese16x16 ; 0x870
        0x00000766:    e7e2        ..      B        0x72e ; LCD_ShowChinese + 52
        0x00000768:    9401        ..      STR      r4,[sp,#4]
        0x0000076a:    9600        ..      STR      r6,[sp,#0]
        0x0000076c:    9502        ..      STR      r5,[sp,#8]
        0x0000076e:    463a        :F      MOV      r2,r7
        0x00000770:    9b06        ..      LDR      r3,[sp,#0x18]
        0x00000772:    9904        ..      LDR      r1,[sp,#0x10]
        0x00000774:    9803        ..      LDR      r0,[sp,#0xc]
        0x00000776:    f000f8f5    ....    BL       LCD_ShowChinese24x24 ; 0x964
        0x0000077a:    e7d8        ..      B        0x72e ; LCD_ShowChinese + 52
    i.LCD_ShowChinese12x12
    LCD_ShowChinese12x12
        0x0000077c:    b5ff        ..      PUSH     {r0-r7,lr}
        0x0000077e:    b087        ..      SUB      sp,sp,#0x1c
        0x00000780:    4605        .F      MOV      r5,r0
        0x00000782:    9005        ..      STR      r0,[sp,#0x14]
        0x00000784:    9811        ..      LDR      r0,[sp,#0x44]
        0x00000786:    2600        .&      MOVS     r6,#0
        0x00000788:    08c1        ..      LSRS     r1,r0,#3
        0x0000078a:    0740        @.      LSLS     r0,r0,#29
        0x0000078c:    d000        ..      BEQ      0x790 ; LCD_ShowChinese12x12 + 20
        0x0000078e:    2001        .       MOVS     r0,#1
        0x00000790:    1808        ..      ADDS     r0,r1,r0
        0x00000792:    9911        ..      LDR      r1,[sp,#0x44]
        0x00000794:    4348        HC      MULS     r0,r1,r0
        0x00000796:    9001        ..      STR      r0,[sp,#4]
        0x00000798:    2005        .       MOVS     r0,#5
        0x0000079a:    9003        ..      STR      r0,[sp,#0xc]
        0x0000079c:    2000        .       MOVS     r0,#0
        0x0000079e:    9002        ..      STR      r0,[sp,#8]
        0x000007a0:    211a        .!      MOVS     r1,#0x1a
        0x000007a2:    4348        HC      MULS     r0,r1,r0
        0x000007a4:    4931        1I      LDR      r1,[pc,#196] ; [0x86c] = 0x29c4
        0x000007a6:    9a09        ..      LDR      r2,[sp,#0x24]
        0x000007a8:    5c0b        .\      LDRB     r3,[r1,r0]
        0x000007aa:    7812        .x      LDRB     r2,[r2,#0]
        0x000007ac:    4293        .B      CMP      r3,r2
        0x000007ae:    d153        S.      BNE      0x858 ; LCD_ShowChinese12x12 + 220
        0x000007b0:    1840        @.      ADDS     r0,r0,r1
        0x000007b2:    9004        ..      STR      r0,[sp,#0x10]
        0x000007b4:    7841        Ax      LDRB     r1,[r0,#1]
        0x000007b6:    9809        ..      LDR      r0,[sp,#0x24]
        0x000007b8:    7840        @x      LDRB     r0,[r0,#1]
        0x000007ba:    4281        .B      CMP      r1,r0
        0x000007bc:    d14c        L.      BNE      0x858 ; LCD_ShowChinese12x12 + 220
        0x000007be:    9911        ..      LDR      r1,[sp,#0x44]
        0x000007c0:    9808        ..      LDR      r0,[sp,#0x20]
        0x000007c2:    186a        j.      ADDS     r2,r5,r1
        0x000007c4:    1843        C.      ADDS     r3,r0,r1
        0x000007c6:    4601        .F      MOV      r1,r0
        0x000007c8:    4628        (F      MOV      r0,r5
        0x000007ca:    1e52        R.      SUBS     r2,r2,#1
        0x000007cc:    1e5b        [.      SUBS     r3,r3,#1
        0x000007ce:    f7ffff4f    ..O.    BL       LCD_Address_Set ; 0x670
        0x000007d2:    2000        .       MOVS     r0,#0
        0x000007d4:    9000        ..      STR      r0,[sp,#0]
        0x000007d6:    9801        ..      LDR      r0,[sp,#4]
        0x000007d8:    2800        .(      CMP      r0,#0
        0x000007da:    d93d        =.      BLS      0x858 ; LCD_ShowChinese12x12 + 220
        0x000007dc:    9900        ..      LDR      r1,[sp,#0]
        0x000007de:    9804        ..      LDR      r0,[sp,#0x10]
        0x000007e0:    2400        .$      MOVS     r4,#0
        0x000007e2:    1847        G.      ADDS     r7,r0,r1
        0x000007e4:    9812        ..      LDR      r0,[sp,#0x48]
        0x000007e6:    78b9        .x      LDRB     r1,[r7,#2]
        0x000007e8:    2800        .(      CMP      r0,#0
        0x000007ea:    d019        ..      BEQ      0x820 ; LCD_ShowChinese12x12 + 164
        0x000007ec:    2001        .       MOVS     r0,#1
        0x000007ee:    40a0        .@      LSLS     r0,r0,r4
        0x000007f0:    4201        .B      TST      r1,r0
        0x000007f2:    d00a        ..      BEQ      0x80a ; LCD_ShowChinese12x12 + 142
        0x000007f4:    9908        ..      LDR      r1,[sp,#0x20]
        0x000007f6:    980a        ..      LDR      r0,[sp,#0x28]
        0x000007f8:    462a        *F      MOV      r2,r5
        0x000007fa:    9006        ..      STR      r0,[sp,#0x18]
        0x000007fc:    460b        .F      MOV      r3,r1
        0x000007fe:    4610        .F      MOV      r0,r2
        0x00000800:    f7ffff36    ..6.    BL       LCD_Address_Set ; 0x670
        0x00000804:    9806        ..      LDR      r0,[sp,#0x18]
        0x00000806:    f000f9a1    ....    BL       LCD_WR_DATA ; 0xb4c
        0x0000080a:    9805        ..      LDR      r0,[sp,#0x14]
        0x0000080c:    1c6d        m.      ADDS     r5,r5,#1
        0x0000080e:    1a29        ).      SUBS     r1,r5,r0
        0x00000810:    9811        ..      LDR      r0,[sp,#0x44]
        0x00000812:    4281        .B      CMP      r1,r0
        0x00000814:    d115        ..      BNE      0x842 ; LCD_ShowChinese12x12 + 198
        0x00000816:    9808        ..      LDR      r0,[sp,#0x20]
        0x00000818:    9d05        ..      LDR      r5,[sp,#0x14]
        0x0000081a:    1c40        @.      ADDS     r0,r0,#1
        0x0000081c:    9008        ..      STR      r0,[sp,#0x20]
        0x0000081e:    e014        ..      B        0x84a ; LCD_ShowChinese12x12 + 206
        0x00000820:    2001        .       MOVS     r0,#1
        0x00000822:    40a0        .@      LSLS     r0,r0,r4
        0x00000824:    4201        .B      TST      r1,r0
        0x00000826:    d001        ..      BEQ      0x82c ; LCD_ShowChinese12x12 + 176
        0x00000828:    980a        ..      LDR      r0,[sp,#0x28]
        0x0000082a:    e000        ..      B        0x82e ; LCD_ShowChinese12x12 + 178
        0x0000082c:    9810        ..      LDR      r0,[sp,#0x40]
        0x0000082e:    f000f98d    ....    BL       LCD_WR_DATA ; 0xb4c
        0x00000832:    1c76        v.      ADDS     r6,r6,#1
        0x00000834:    b2f6        ..      UXTB     r6,r6
        0x00000836:    4630        0F      MOV      r0,r6
        0x00000838:    9911        ..      LDR      r1,[sp,#0x44]
        0x0000083a:    f7fffc7f    ....    BL       __aeabi_uidiv ; 0x13c
        0x0000083e:    2900        .)      CMP      r1,#0
        0x00000840:    d012        ..      BEQ      0x868 ; LCD_ShowChinese12x12 + 236
        0x00000842:    1c64        d.      ADDS     r4,r4,#1
        0x00000844:    b2e4        ..      UXTB     r4,r4
        0x00000846:    2c08        .,      CMP      r4,#8
        0x00000848:    d3cc        ..      BCC      0x7e4 ; LCD_ShowChinese12x12 + 104
        0x0000084a:    9800        ..      LDR      r0,[sp,#0]
        0x0000084c:    9901        ..      LDR      r1,[sp,#4]
        0x0000084e:    1c40        @.      ADDS     r0,r0,#1
        0x00000850:    b2c0        ..      UXTB     r0,r0
        0x00000852:    9000        ..      STR      r0,[sp,#0]
        0x00000854:    4288        .B      CMP      r0,r1
        0x00000856:    d3c1        ..      BCC      0x7dc ; LCD_ShowChinese12x12 + 96
        0x00000858:    9802        ..      LDR      r0,[sp,#8]
        0x0000085a:    9903        ..      LDR      r1,[sp,#0xc]
        0x0000085c:    1c40        @.      ADDS     r0,r0,#1
        0x0000085e:    9002        ..      STR      r0,[sp,#8]
        0x00000860:    4288        .B      CMP      r0,r1
        0x00000862:    d39d        ..      BCC      0x7a0 ; LCD_ShowChinese12x12 + 36
        0x00000864:    b00b        ..      ADD      sp,sp,#0x2c
        0x00000866:    bdf0        ..      POP      {r4-r7,pc}
        0x00000868:    2600        .&      MOVS     r6,#0
        0x0000086a:    e7ee        ..      B        0x84a ; LCD_ShowChinese12x12 + 206
    $d
        0x0000086c:    000029c4    .)..    DCD    10692
    $t
    i.LCD_ShowChinese16x16
    LCD_ShowChinese16x16
        0x00000870:    b5ff        ..      PUSH     {r0-r7,lr}
        0x00000872:    b087        ..      SUB      sp,sp,#0x1c
        0x00000874:    4605        .F      MOV      r5,r0
        0x00000876:    9005        ..      STR      r0,[sp,#0x14]
        0x00000878:    9811        ..      LDR      r0,[sp,#0x44]
        0x0000087a:    2600        .&      MOVS     r6,#0
        0x0000087c:    08c1        ..      LSRS     r1,r0,#3
        0x0000087e:    0740        @.      LSLS     r0,r0,#29
        0x00000880:    d000        ..      BEQ      0x884 ; LCD_ShowChinese16x16 + 20
        0x00000882:    2001        .       MOVS     r0,#1
        0x00000884:    1808        ..      ADDS     r0,r1,r0
        0x00000886:    9911        ..      LDR      r1,[sp,#0x44]
        0x00000888:    4348        HC      MULS     r0,r1,r0
        0x0000088a:    9001        ..      STR      r0,[sp,#4]
        0x0000088c:    2005        .       MOVS     r0,#5
        0x0000088e:    9003        ..      STR      r0,[sp,#0xc]
        0x00000890:    2000        .       MOVS     r0,#0
        0x00000892:    9002        ..      STR      r0,[sp,#8]
        0x00000894:    2122        "!      MOVS     r1,#0x22
        0x00000896:    4348        HC      MULS     r0,r1,r0
        0x00000898:    4931        1I      LDR      r1,[pc,#196] ; [0x960] = 0x2a46
        0x0000089a:    9a09        ..      LDR      r2,[sp,#0x24]
        0x0000089c:    5c0b        .\      LDRB     r3,[r1,r0]
        0x0000089e:    7812        .x      LDRB     r2,[r2,#0]
        0x000008a0:    4293        .B      CMP      r3,r2
        0x000008a2:    d153        S.      BNE      0x94c ; LCD_ShowChinese16x16 + 220
        0x000008a4:    1840        @.      ADDS     r0,r0,r1
        0x000008a6:    9004        ..      STR      r0,[sp,#0x10]
        0x000008a8:    7841        Ax      LDRB     r1,[r0,#1]
        0x000008aa:    9809        ..      LDR      r0,[sp,#0x24]
        0x000008ac:    7840        @x      LDRB     r0,[r0,#1]
        0x000008ae:    4281        .B      CMP      r1,r0
        0x000008b0:    d14c        L.      BNE      0x94c ; LCD_ShowChinese16x16 + 220
        0x000008b2:    9911        ..      LDR      r1,[sp,#0x44]
        0x000008b4:    9808        ..      LDR      r0,[sp,#0x20]
        0x000008b6:    186a        j.      ADDS     r2,r5,r1
        0x000008b8:    1843        C.      ADDS     r3,r0,r1
        0x000008ba:    4601        .F      MOV      r1,r0
        0x000008bc:    4628        (F      MOV      r0,r5
        0x000008be:    1e52        R.      SUBS     r2,r2,#1
        0x000008c0:    1e5b        [.      SUBS     r3,r3,#1
        0x000008c2:    f7fffed5    ....    BL       LCD_Address_Set ; 0x670
        0x000008c6:    2000        .       MOVS     r0,#0
        0x000008c8:    9000        ..      STR      r0,[sp,#0]
        0x000008ca:    9801        ..      LDR      r0,[sp,#4]
        0x000008cc:    2800        .(      CMP      r0,#0
        0x000008ce:    d93d        =.      BLS      0x94c ; LCD_ShowChinese16x16 + 220
        0x000008d0:    9900        ..      LDR      r1,[sp,#0]
        0x000008d2:    9804        ..      LDR      r0,[sp,#0x10]
        0x000008d4:    2400        .$      MOVS     r4,#0
        0x000008d6:    1847        G.      ADDS     r7,r0,r1
        0x000008d8:    9812        ..      LDR      r0,[sp,#0x48]
        0x000008da:    78b9        .x      LDRB     r1,[r7,#2]
        0x000008dc:    2800        .(      CMP      r0,#0
        0x000008de:    d019        ..      BEQ      0x914 ; LCD_ShowChinese16x16 + 164
        0x000008e0:    2001        .       MOVS     r0,#1
        0x000008e2:    40a0        .@      LSLS     r0,r0,r4
        0x000008e4:    4201        .B      TST      r1,r0
        0x000008e6:    d00a        ..      BEQ      0x8fe ; LCD_ShowChinese16x16 + 142
        0x000008e8:    9908        ..      LDR      r1,[sp,#0x20]
        0x000008ea:    980a        ..      LDR      r0,[sp,#0x28]
        0x000008ec:    462a        *F      MOV      r2,r5
        0x000008ee:    9006        ..      STR      r0,[sp,#0x18]
        0x000008f0:    460b        .F      MOV      r3,r1
        0x000008f2:    4610        .F      MOV      r0,r2
        0x000008f4:    f7fffebc    ....    BL       LCD_Address_Set ; 0x670
        0x000008f8:    9806        ..      LDR      r0,[sp,#0x18]
        0x000008fa:    f000f927    ..'.    BL       LCD_WR_DATA ; 0xb4c
        0x000008fe:    9805        ..      LDR      r0,[sp,#0x14]
        0x00000900:    1c6d        m.      ADDS     r5,r5,#1
        0x00000902:    1a29        ).      SUBS     r1,r5,r0
        0x00000904:    9811        ..      LDR      r0,[sp,#0x44]
        0x00000906:    4281        .B      CMP      r1,r0
        0x00000908:    d115        ..      BNE      0x936 ; LCD_ShowChinese16x16 + 198
        0x0000090a:    9808        ..      LDR      r0,[sp,#0x20]
        0x0000090c:    9d05        ..      LDR      r5,[sp,#0x14]
        0x0000090e:    1c40        @.      ADDS     r0,r0,#1
        0x00000910:    9008        ..      STR      r0,[sp,#0x20]
        0x00000912:    e014        ..      B        0x93e ; LCD_ShowChinese16x16 + 206
        0x00000914:    2001        .       MOVS     r0,#1
        0x00000916:    40a0        .@      LSLS     r0,r0,r4
        0x00000918:    4201        .B      TST      r1,r0
        0x0000091a:    d001        ..      BEQ      0x920 ; LCD_ShowChinese16x16 + 176
        0x0000091c:    980a        ..      LDR      r0,[sp,#0x28]
        0x0000091e:    e000        ..      B        0x922 ; LCD_ShowChinese16x16 + 178
        0x00000920:    9810        ..      LDR      r0,[sp,#0x40]
        0x00000922:    f000f913    ....    BL       LCD_WR_DATA ; 0xb4c
        0x00000926:    1c76        v.      ADDS     r6,r6,#1
        0x00000928:    b2f6        ..      UXTB     r6,r6
        0x0000092a:    4630        0F      MOV      r0,r6
        0x0000092c:    9911        ..      LDR      r1,[sp,#0x44]
        0x0000092e:    f7fffc05    ....    BL       __aeabi_uidiv ; 0x13c
        0x00000932:    2900        .)      CMP      r1,#0
        0x00000934:    d012        ..      BEQ      0x95c ; LCD_ShowChinese16x16 + 236
        0x00000936:    1c64        d.      ADDS     r4,r4,#1
        0x00000938:    b2e4        ..      UXTB     r4,r4
        0x0000093a:    2c08        .,      CMP      r4,#8
        0x0000093c:    d3cc        ..      BCC      0x8d8 ; LCD_ShowChinese16x16 + 104
        0x0000093e:    9800        ..      LDR      r0,[sp,#0]
        0x00000940:    9901        ..      LDR      r1,[sp,#4]
        0x00000942:    1c40        @.      ADDS     r0,r0,#1
        0x00000944:    b2c0        ..      UXTB     r0,r0
        0x00000946:    9000        ..      STR      r0,[sp,#0]
        0x00000948:    4288        .B      CMP      r0,r1
        0x0000094a:    d3c1        ..      BCC      0x8d0 ; LCD_ShowChinese16x16 + 96
        0x0000094c:    9802        ..      LDR      r0,[sp,#8]
        0x0000094e:    9903        ..      LDR      r1,[sp,#0xc]
        0x00000950:    1c40        @.      ADDS     r0,r0,#1
        0x00000952:    9002        ..      STR      r0,[sp,#8]
        0x00000954:    4288        .B      CMP      r0,r1
        0x00000956:    d39d        ..      BCC      0x894 ; LCD_ShowChinese16x16 + 36
        0x00000958:    b00b        ..      ADD      sp,sp,#0x2c
        0x0000095a:    bdf0        ..      POP      {r4-r7,pc}
        0x0000095c:    2600        .&      MOVS     r6,#0
        0x0000095e:    e7ee        ..      B        0x93e ; LCD_ShowChinese16x16 + 206
    $d
        0x00000960:    00002a46    F*..    DCD    10822
    $t
    i.LCD_ShowChinese24x24
    LCD_ShowChinese24x24
        0x00000964:    b5ff        ..      PUSH     {r0-r7,lr}
        0x00000966:    b087        ..      SUB      sp,sp,#0x1c
        0x00000968:    4605        .F      MOV      r5,r0
        0x0000096a:    9005        ..      STR      r0,[sp,#0x14]
        0x0000096c:    9811        ..      LDR      r0,[sp,#0x44]
        0x0000096e:    2600        .&      MOVS     r6,#0
        0x00000970:    08c1        ..      LSRS     r1,r0,#3
        0x00000972:    0740        @.      LSLS     r0,r0,#29
        0x00000974:    d000        ..      BEQ      0x978 ; LCD_ShowChinese24x24 + 20
        0x00000976:    2001        .       MOVS     r0,#1
        0x00000978:    1808        ..      ADDS     r0,r1,r0
        0x0000097a:    9911        ..      LDR      r1,[sp,#0x44]
        0x0000097c:    4348        HC      MULS     r0,r1,r0
        0x0000097e:    9001        ..      STR      r0,[sp,#4]
        0x00000980:    2005        .       MOVS     r0,#5
        0x00000982:    9003        ..      STR      r0,[sp,#0xc]
        0x00000984:    2000        .       MOVS     r0,#0
        0x00000986:    9002        ..      STR      r0,[sp,#8]
        0x00000988:    214a        J!      MOVS     r1,#0x4a
        0x0000098a:    4348        HC      MULS     r0,r1,r0
        0x0000098c:    4931        1I      LDR      r1,[pc,#196] ; [0xa54] = 0x2af0
        0x0000098e:    9a09        ..      LDR      r2,[sp,#0x24]
        0x00000990:    5c0b        .\      LDRB     r3,[r1,r0]
        0x00000992:    7812        .x      LDRB     r2,[r2,#0]
        0x00000994:    4293        .B      CMP      r3,r2
        0x00000996:    d153        S.      BNE      0xa40 ; LCD_ShowChinese24x24 + 220
        0x00000998:    1840        @.      ADDS     r0,r0,r1
        0x0000099a:    9004        ..      STR      r0,[sp,#0x10]
        0x0000099c:    7841        Ax      LDRB     r1,[r0,#1]
        0x0000099e:    9809        ..      LDR      r0,[sp,#0x24]
        0x000009a0:    7840        @x      LDRB     r0,[r0,#1]
        0x000009a2:    4281        .B      CMP      r1,r0
        0x000009a4:    d14c        L.      BNE      0xa40 ; LCD_ShowChinese24x24 + 220
        0x000009a6:    9911        ..      LDR      r1,[sp,#0x44]
        0x000009a8:    9808        ..      LDR      r0,[sp,#0x20]
        0x000009aa:    186a        j.      ADDS     r2,r5,r1
        0x000009ac:    1843        C.      ADDS     r3,r0,r1
        0x000009ae:    4601        .F      MOV      r1,r0
        0x000009b0:    4628        (F      MOV      r0,r5
        0x000009b2:    1e52        R.      SUBS     r2,r2,#1
        0x000009b4:    1e5b        [.      SUBS     r3,r3,#1
        0x000009b6:    f7fffe5b    ..[.    BL       LCD_Address_Set ; 0x670
        0x000009ba:    2000        .       MOVS     r0,#0
        0x000009bc:    9000        ..      STR      r0,[sp,#0]
        0x000009be:    9801        ..      LDR      r0,[sp,#4]
        0x000009c0:    2800        .(      CMP      r0,#0
        0x000009c2:    d93d        =.      BLS      0xa40 ; LCD_ShowChinese24x24 + 220
        0x000009c4:    9900        ..      LDR      r1,[sp,#0]
        0x000009c6:    9804        ..      LDR      r0,[sp,#0x10]
        0x000009c8:    2400        .$      MOVS     r4,#0
        0x000009ca:    1847        G.      ADDS     r7,r0,r1
        0x000009cc:    9812        ..      LDR      r0,[sp,#0x48]
        0x000009ce:    78b9        .x      LDRB     r1,[r7,#2]
        0x000009d0:    2800        .(      CMP      r0,#0
        0x000009d2:    d019        ..      BEQ      0xa08 ; LCD_ShowChinese24x24 + 164
        0x000009d4:    2001        .       MOVS     r0,#1
        0x000009d6:    40a0        .@      LSLS     r0,r0,r4
        0x000009d8:    4201        .B      TST      r1,r0
        0x000009da:    d00a        ..      BEQ      0x9f2 ; LCD_ShowChinese24x24 + 142
        0x000009dc:    9908        ..      LDR      r1,[sp,#0x20]
        0x000009de:    980a        ..      LDR      r0,[sp,#0x28]
        0x000009e0:    462a        *F      MOV      r2,r5
        0x000009e2:    9006        ..      STR      r0,[sp,#0x18]
        0x000009e4:    460b        .F      MOV      r3,r1
        0x000009e6:    4610        .F      MOV      r0,r2
        0x000009e8:    f7fffe42    ..B.    BL       LCD_Address_Set ; 0x670
        0x000009ec:    9806        ..      LDR      r0,[sp,#0x18]
        0x000009ee:    f000f8ad    ....    BL       LCD_WR_DATA ; 0xb4c
        0x000009f2:    9805        ..      LDR      r0,[sp,#0x14]
        0x000009f4:    1c6d        m.      ADDS     r5,r5,#1
        0x000009f6:    1a29        ).      SUBS     r1,r5,r0
        0x000009f8:    9811        ..      LDR      r0,[sp,#0x44]
        0x000009fa:    4281        .B      CMP      r1,r0
        0x000009fc:    d115        ..      BNE      0xa2a ; LCD_ShowChinese24x24 + 198
        0x000009fe:    9808        ..      LDR      r0,[sp,#0x20]
        0x00000a00:    9d05        ..      LDR      r5,[sp,#0x14]
        0x00000a02:    1c40        @.      ADDS     r0,r0,#1
        0x00000a04:    9008        ..      STR      r0,[sp,#0x20]
        0x00000a06:    e014        ..      B        0xa32 ; LCD_ShowChinese24x24 + 206
        0x00000a08:    2001        .       MOVS     r0,#1
        0x00000a0a:    40a0        .@      LSLS     r0,r0,r4
        0x00000a0c:    4201        .B      TST      r1,r0
        0x00000a0e:    d001        ..      BEQ      0xa14 ; LCD_ShowChinese24x24 + 176
        0x00000a10:    980a        ..      LDR      r0,[sp,#0x28]
        0x00000a12:    e000        ..      B        0xa16 ; LCD_ShowChinese24x24 + 178
        0x00000a14:    9810        ..      LDR      r0,[sp,#0x40]
        0x00000a16:    f000f899    ....    BL       LCD_WR_DATA ; 0xb4c
        0x00000a1a:    1c76        v.      ADDS     r6,r6,#1
        0x00000a1c:    b2f6        ..      UXTB     r6,r6
        0x00000a1e:    4630        0F      MOV      r0,r6
        0x00000a20:    9911        ..      LDR      r1,[sp,#0x44]
        0x00000a22:    f7fffb8b    ....    BL       __aeabi_uidiv ; 0x13c
        0x00000a26:    2900        .)      CMP      r1,#0
        0x00000a28:    d012        ..      BEQ      0xa50 ; LCD_ShowChinese24x24 + 236
        0x00000a2a:    1c64        d.      ADDS     r4,r4,#1
        0x00000a2c:    b2e4        ..      UXTB     r4,r4
        0x00000a2e:    2c08        .,      CMP      r4,#8
        0x00000a30:    d3cc        ..      BCC      0x9cc ; LCD_ShowChinese24x24 + 104
        0x00000a32:    9800        ..      LDR      r0,[sp,#0]
        0x00000a34:    9901        ..      LDR      r1,[sp,#4]
        0x00000a36:    1c40        @.      ADDS     r0,r0,#1
        0x00000a38:    b2c0        ..      UXTB     r0,r0
        0x00000a3a:    9000        ..      STR      r0,[sp,#0]
        0x00000a3c:    4288        .B      CMP      r0,r1
        0x00000a3e:    d3c1        ..      BCC      0x9c4 ; LCD_ShowChinese24x24 + 96
        0x00000a40:    9802        ..      LDR      r0,[sp,#8]
        0x00000a42:    9903        ..      LDR      r1,[sp,#0xc]
        0x00000a44:    1c40        @.      ADDS     r0,r0,#1
        0x00000a46:    9002        ..      STR      r0,[sp,#8]
        0x00000a48:    4288        .B      CMP      r0,r1
        0x00000a4a:    d39d        ..      BCC      0x988 ; LCD_ShowChinese24x24 + 36
        0x00000a4c:    b00b        ..      ADD      sp,sp,#0x2c
        0x00000a4e:    bdf0        ..      POP      {r4-r7,pc}
        0x00000a50:    2600        .&      MOVS     r6,#0
        0x00000a52:    e7ee        ..      B        0xa32 ; LCD_ShowChinese24x24 + 206
    $d
        0x00000a54:    00002af0    .*..    DCD    10992
    $t
    i.LCD_ShowChinese32x32
    LCD_ShowChinese32x32
        0x00000a58:    b5ff        ..      PUSH     {r0-r7,lr}
        0x00000a5a:    b087        ..      SUB      sp,sp,#0x1c
        0x00000a5c:    4605        .F      MOV      r5,r0
        0x00000a5e:    9005        ..      STR      r0,[sp,#0x14]
        0x00000a60:    9811        ..      LDR      r0,[sp,#0x44]
        0x00000a62:    2600        .&      MOVS     r6,#0
        0x00000a64:    08c1        ..      LSRS     r1,r0,#3
        0x00000a66:    0740        @.      LSLS     r0,r0,#29
        0x00000a68:    d000        ..      BEQ      0xa6c ; LCD_ShowChinese32x32 + 20
        0x00000a6a:    2001        .       MOVS     r0,#1
        0x00000a6c:    1808        ..      ADDS     r0,r1,r0
        0x00000a6e:    9911        ..      LDR      r1,[sp,#0x44]
        0x00000a70:    4348        HC      MULS     r0,r1,r0
        0x00000a72:    9001        ..      STR      r0,[sp,#4]
        0x00000a74:    2005        .       MOVS     r0,#5
        0x00000a76:    9003        ..      STR      r0,[sp,#0xc]
        0x00000a78:    2000        .       MOVS     r0,#0
        0x00000a7a:    9002        ..      STR      r0,[sp,#8]
        0x00000a7c:    2182        .!      MOVS     r1,#0x82
        0x00000a7e:    4348        HC      MULS     r0,r1,r0
        0x00000a80:    4931        1I      LDR      r1,[pc,#196] ; [0xb48] = 0x2c62
        0x00000a82:    9a09        ..      LDR      r2,[sp,#0x24]
        0x00000a84:    5c0b        .\      LDRB     r3,[r1,r0]
        0x00000a86:    7812        .x      LDRB     r2,[r2,#0]
        0x00000a88:    4293        .B      CMP      r3,r2
        0x00000a8a:    d153        S.      BNE      0xb34 ; LCD_ShowChinese32x32 + 220
        0x00000a8c:    1840        @.      ADDS     r0,r0,r1
        0x00000a8e:    9004        ..      STR      r0,[sp,#0x10]
        0x00000a90:    7841        Ax      LDRB     r1,[r0,#1]
        0x00000a92:    9809        ..      LDR      r0,[sp,#0x24]
        0x00000a94:    7840        @x      LDRB     r0,[r0,#1]
        0x00000a96:    4281        .B      CMP      r1,r0
        0x00000a98:    d14c        L.      BNE      0xb34 ; LCD_ShowChinese32x32 + 220
        0x00000a9a:    9911        ..      LDR      r1,[sp,#0x44]
        0x00000a9c:    9808        ..      LDR      r0,[sp,#0x20]
        0x00000a9e:    186a        j.      ADDS     r2,r5,r1
        0x00000aa0:    1843        C.      ADDS     r3,r0,r1
        0x00000aa2:    4601        .F      MOV      r1,r0
        0x00000aa4:    4628        (F      MOV      r0,r5
        0x00000aa6:    1e52        R.      SUBS     r2,r2,#1
        0x00000aa8:    1e5b        [.      SUBS     r3,r3,#1
        0x00000aaa:    f7fffde1    ....    BL       LCD_Address_Set ; 0x670
        0x00000aae:    2000        .       MOVS     r0,#0
        0x00000ab0:    9000        ..      STR      r0,[sp,#0]
        0x00000ab2:    9801        ..      LDR      r0,[sp,#4]
        0x00000ab4:    2800        .(      CMP      r0,#0
        0x00000ab6:    d93d        =.      BLS      0xb34 ; LCD_ShowChinese32x32 + 220
        0x00000ab8:    9900        ..      LDR      r1,[sp,#0]
        0x00000aba:    9804        ..      LDR      r0,[sp,#0x10]
        0x00000abc:    2400        .$      MOVS     r4,#0
        0x00000abe:    1847        G.      ADDS     r7,r0,r1
        0x00000ac0:    9812        ..      LDR      r0,[sp,#0x48]
        0x00000ac2:    78b9        .x      LDRB     r1,[r7,#2]
        0x00000ac4:    2800        .(      CMP      r0,#0
        0x00000ac6:    d019        ..      BEQ      0xafc ; LCD_ShowChinese32x32 + 164
        0x00000ac8:    2001        .       MOVS     r0,#1
        0x00000aca:    40a0        .@      LSLS     r0,r0,r4
        0x00000acc:    4201        .B      TST      r1,r0
        0x00000ace:    d00a        ..      BEQ      0xae6 ; LCD_ShowChinese32x32 + 142
        0x00000ad0:    9908        ..      LDR      r1,[sp,#0x20]
        0x00000ad2:    980a        ..      LDR      r0,[sp,#0x28]
        0x00000ad4:    462a        *F      MOV      r2,r5
        0x00000ad6:    9006        ..      STR      r0,[sp,#0x18]
        0x00000ad8:    460b        .F      MOV      r3,r1
        0x00000ada:    4610        .F      MOV      r0,r2
        0x00000adc:    f7fffdc8    ....    BL       LCD_Address_Set ; 0x670
        0x00000ae0:    9806        ..      LDR      r0,[sp,#0x18]
        0x00000ae2:    f000f833    ..3.    BL       LCD_WR_DATA ; 0xb4c
        0x00000ae6:    9805        ..      LDR      r0,[sp,#0x14]
        0x00000ae8:    1c6d        m.      ADDS     r5,r5,#1
        0x00000aea:    1a29        ).      SUBS     r1,r5,r0
        0x00000aec:    9811        ..      LDR      r0,[sp,#0x44]
        0x00000aee:    4281        .B      CMP      r1,r0
        0x00000af0:    d115        ..      BNE      0xb1e ; LCD_ShowChinese32x32 + 198
        0x00000af2:    9808        ..      LDR      r0,[sp,#0x20]
        0x00000af4:    9d05        ..      LDR      r5,[sp,#0x14]
        0x00000af6:    1c40        @.      ADDS     r0,r0,#1
        0x00000af8:    9008        ..      STR      r0,[sp,#0x20]
        0x00000afa:    e014        ..      B        0xb26 ; LCD_ShowChinese32x32 + 206
        0x00000afc:    2001        .       MOVS     r0,#1
        0x00000afe:    40a0        .@      LSLS     r0,r0,r4
        0x00000b00:    4201        .B      TST      r1,r0
        0x00000b02:    d001        ..      BEQ      0xb08 ; LCD_ShowChinese32x32 + 176
        0x00000b04:    980a        ..      LDR      r0,[sp,#0x28]
        0x00000b06:    e000        ..      B        0xb0a ; LCD_ShowChinese32x32 + 178
        0x00000b08:    9810        ..      LDR      r0,[sp,#0x40]
        0x00000b0a:    f000f81f    ....    BL       LCD_WR_DATA ; 0xb4c
        0x00000b0e:    1c76        v.      ADDS     r6,r6,#1
        0x00000b10:    b2f6        ..      UXTB     r6,r6
        0x00000b12:    4630        0F      MOV      r0,r6
        0x00000b14:    9911        ..      LDR      r1,[sp,#0x44]
        0x00000b16:    f7fffb11    ....    BL       __aeabi_uidiv ; 0x13c
        0x00000b1a:    2900        .)      CMP      r1,#0
        0x00000b1c:    d012        ..      BEQ      0xb44 ; LCD_ShowChinese32x32 + 236
        0x00000b1e:    1c64        d.      ADDS     r4,r4,#1
        0x00000b20:    b2e4        ..      UXTB     r4,r4
        0x00000b22:    2c08        .,      CMP      r4,#8
        0x00000b24:    d3cc        ..      BCC      0xac0 ; LCD_ShowChinese32x32 + 104
        0x00000b26:    9800        ..      LDR      r0,[sp,#0]
        0x00000b28:    9901        ..      LDR      r1,[sp,#4]
        0x00000b2a:    1c40        @.      ADDS     r0,r0,#1
        0x00000b2c:    b2c0        ..      UXTB     r0,r0
        0x00000b2e:    9000        ..      STR      r0,[sp,#0]
        0x00000b30:    4288        .B      CMP      r0,r1
        0x00000b32:    d3c1        ..      BCC      0xab8 ; LCD_ShowChinese32x32 + 96
        0x00000b34:    9802        ..      LDR      r0,[sp,#8]
        0x00000b36:    9903        ..      LDR      r1,[sp,#0xc]
        0x00000b38:    1c40        @.      ADDS     r0,r0,#1
        0x00000b3a:    9002        ..      STR      r0,[sp,#8]
        0x00000b3c:    4288        .B      CMP      r0,r1
        0x00000b3e:    d39d        ..      BCC      0xa7c ; LCD_ShowChinese32x32 + 36
        0x00000b40:    b00b        ..      ADD      sp,sp,#0x2c
        0x00000b42:    bdf0        ..      POP      {r4-r7,pc}
        0x00000b44:    2600        .&      MOVS     r6,#0
        0x00000b46:    e7ee        ..      B        0xb26 ; LCD_ShowChinese32x32 + 206
    $d
        0x00000b48:    00002c62    b,..    DCD    11362
    $t
    i.LCD_WR_DATA
    LCD_WR_DATA
        0x00000b4c:    b510        ..      PUSH     {r4,lr}
        0x00000b4e:    4604        .F      MOV      r4,r0
        0x00000b50:    0400        ..      LSLS     r0,r0,#16
        0x00000b52:    0e00        ..      LSRS     r0,r0,#24
        0x00000b54:    f000f810    ....    BL       LCD_Writ_Bus ; 0xb78
        0x00000b58:    b2e0        ..      UXTB     r0,r4
        0x00000b5a:    f000f80d    ....    BL       LCD_Writ_Bus ; 0xb78
        0x00000b5e:    bd10        ..      POP      {r4,pc}
    i.LCD_WR_REG
    LCD_WR_REG
        0x00000b60:    b510        ..      PUSH     {r4,lr}
        0x00000b62:    4c04        .L      LDR      r4,[pc,#16] ; [0xb74] = 0x50004200
        0x00000b64:    2100        .!      MOVS     r1,#0
        0x00000b66:    6021        !`      STR      r1,[r4,#0]
        0x00000b68:    f000f806    ....    BL       LCD_Writ_Bus ; 0xb78
        0x00000b6c:    2001        .       MOVS     r0,#1
        0x00000b6e:    6020         `      STR      r0,[r4,#0]
        0x00000b70:    bd10        ..      POP      {r4,pc}
    $d
        0x00000b72:    0000        ..      DCW    0
        0x00000b74:    50004200    .B.P    DCD    1342194176
    $t
    i.LCD_Writ_Bus
    LCD_Writ_Bus
        0x00000b78:    b430        0.      PUSH     {r4,r5}
        0x00000b7a:    4a0a        .J      LDR      r2,[pc,#40] ; [0xba4] = 0x50004200
        0x00000b7c:    2300        .#      MOVS     r3,#0
        0x00000b7e:    6313        .c      STR      r3,[r2,#0x30]
        0x00000b80:    4619        .F      MOV      r1,r3
        0x00000b82:    2401        .$      MOVS     r4,#1
        0x00000b84:    63d3        .c      STR      r3,[r2,#0x3c]
        0x00000b86:    0605        ..      LSLS     r5,r0,#24
        0x00000b88:    d501        ..      BPL      0xb8e ; LCD_Writ_Bus + 22
        0x00000b8a:    6354        Tc      STR      r4,[r2,#0x34]
        0x00000b8c:    e000        ..      B        0xb90 ; LCD_Writ_Bus + 24
        0x00000b8e:    6353        Sc      STR      r3,[r2,#0x34]
        0x00000b90:    63d4        .c      STR      r4,[r2,#0x3c]
        0x00000b92:    0640        @.      LSLS     r0,r0,#25
        0x00000b94:    1c49        I.      ADDS     r1,r1,#1
        0x00000b96:    0e00        ..      LSRS     r0,r0,#24
        0x00000b98:    b2c9        ..      UXTB     r1,r1
        0x00000b9a:    2908        .)      CMP      r1,#8
        0x00000b9c:    d3f2        ..      BCC      0xb84 ; LCD_Writ_Bus + 12
        0x00000b9e:    6314        .c      STR      r4,[r2,#0x30]
        0x00000ba0:    bc30        0.      POP      {r4,r5}
        0x00000ba2:    4770        pG      BX       lr
    $d
        0x00000ba4:    50004200    .B.P    DCD    1342194176
    $t
    i.Lcd_Init
    Lcd_Init
        0x00000ba8:    b570        p.      PUSH     {r4-r6,lr}
        0x00000baa:    4c8b        .L      LDR      r4,[pc,#556] ; [0xdd8] = 0x50004200
        0x00000bac:    2000        .       MOVS     r0,#0
        0x00000bae:    6060        ``      STR      r0,[r4,#4]
        0x00000bb0:    2264        d"      MOVS     r2,#0x64
        0x00000bb2:    21e1        .!      MOVS     r1,#0xe1
        0x00000bb4:    00c9        ..      LSLS     r1,r1,#3
        0x00000bb6:    460e        .F      MOV      r6,r1
        0x00000bb8:    1e76        v.      SUBS     r6,r6,#1
        0x00000bba:    d2fd        ..      BCS      0xbb8 ; Lcd_Init + 16
        0x00000bbc:    1e52        R.      SUBS     r2,r2,#1
        0x00000bbe:    d1fa        ..      BNE      0xbb6 ; Lcd_Init + 14
        0x00000bc0:    2301        .#      MOVS     r3,#1
        0x00000bc2:    6063        c`      STR      r3,[r4,#4]
        0x00000bc4:    2264        d"      MOVS     r2,#0x64
        0x00000bc6:    460e        .F      MOV      r6,r1
        0x00000bc8:    460c        .F      MOV      r4,r1
        0x00000bca:    1e64        d.      SUBS     r4,r4,#1
        0x00000bcc:    d2fd        ..      BCS      0xbca ; Lcd_Init + 34
        0x00000bce:    1e52        R.      SUBS     r2,r2,#1
        0x00000bd0:    d1f9        ..      BNE      0xbc6 ; Lcd_Init + 30
        0x00000bd2:    4882        .H      LDR      r0,[pc,#520] ; [0xddc] = 0x50004240
        0x00000bd4:    6003        .`      STR      r3,[r0,#0]
        0x00000bd6:    2164        d!      MOVS     r1,#0x64
        0x00000bd8:    4634        4F      MOV      r4,r6
        0x00000bda:    4625        %F      MOV      r5,r4
        0x00000bdc:    1e6d        m.      SUBS     r5,r5,#1
        0x00000bde:    d2fd        ..      BCS      0xbdc ; Lcd_Init + 52
        0x00000be0:    1e49        I.      SUBS     r1,r1,#1
        0x00000be2:    d1fa        ..      BNE      0xbda ; Lcd_Init + 50
        0x00000be4:    2011        .       MOVS     r0,#0x11
        0x00000be6:    f7ffffbb    ....    BL       LCD_WR_REG ; 0xb60
        0x00000bea:    2278        x"      MOVS     r2,#0x78
        0x00000bec:    4620         F      MOV      r0,r4
        0x00000bee:    1e40        @.      SUBS     r0,r0,#1
        0x00000bf0:    d2fd        ..      BCS      0xbee ; Lcd_Init + 70
        0x00000bf2:    1e52        R.      SUBS     r2,r2,#1
        0x00000bf4:    d1fa        ..      BNE      0xbec ; Lcd_Init + 68
        0x00000bf6:    20cf        .       MOVS     r0,#0xcf
        0x00000bf8:    f7ffffb2    ....    BL       LCD_WR_REG ; 0xb60
        0x00000bfc:    2000        .       MOVS     r0,#0
        0x00000bfe:    f7ffffbb    ....    BL       LCD_Writ_Bus ; 0xb78
        0x00000c02:    20d9        .       MOVS     r0,#0xd9
        0x00000c04:    f7ffffb8    ....    BL       LCD_Writ_Bus ; 0xb78
        0x00000c08:    2030        0       MOVS     r0,#0x30
        0x00000c0a:    f7ffffb5    ....    BL       LCD_Writ_Bus ; 0xb78
        0x00000c0e:    20ed        .       MOVS     r0,#0xed
        0x00000c10:    f7ffffa6    ....    BL       LCD_WR_REG ; 0xb60
        0x00000c14:    2064        d       MOVS     r0,#0x64
        0x00000c16:    f7ffffaf    ....    BL       LCD_Writ_Bus ; 0xb78
        0x00000c1a:    2003        .       MOVS     r0,#3
        0x00000c1c:    f7ffffac    ....    BL       LCD_Writ_Bus ; 0xb78
        0x00000c20:    2012        .       MOVS     r0,#0x12
        0x00000c22:    f7ffffa9    ....    BL       LCD_Writ_Bus ; 0xb78
        0x00000c26:    2081        .       MOVS     r0,#0x81
        0x00000c28:    f7ffffa6    ....    BL       LCD_Writ_Bus ; 0xb78
        0x00000c2c:    20e8        .       MOVS     r0,#0xe8
        0x00000c2e:    f7ffff97    ....    BL       LCD_WR_REG ; 0xb60
        0x00000c32:    2085        .       MOVS     r0,#0x85
        0x00000c34:    f7ffffa0    ....    BL       LCD_Writ_Bus ; 0xb78
        0x00000c38:    2010        .       MOVS     r0,#0x10
        0x00000c3a:    f7ffff9d    ....    BL       LCD_Writ_Bus ; 0xb78
        0x00000c3e:    2078        x       MOVS     r0,#0x78
        0x00000c40:    f7ffff9a    ....    BL       LCD_Writ_Bus ; 0xb78
        0x00000c44:    20cb        .       MOVS     r0,#0xcb
        0x00000c46:    f7ffff8b    ....    BL       LCD_WR_REG ; 0xb60
        0x00000c4a:    2039        9       MOVS     r0,#0x39
        0x00000c4c:    f7ffff94    ....    BL       LCD_Writ_Bus ; 0xb78
        0x00000c50:    202c        ,       MOVS     r0,#0x2c
        0x00000c52:    f7ffff91    ....    BL       LCD_Writ_Bus ; 0xb78
        0x00000c56:    2000        .       MOVS     r0,#0
        0x00000c58:    f7ffff8e    ....    BL       LCD_Writ_Bus ; 0xb78
        0x00000c5c:    2034        4       MOVS     r0,#0x34
        0x00000c5e:    f7ffff8b    ....    BL       LCD_Writ_Bus ; 0xb78
        0x00000c62:    2002        .       MOVS     r0,#2
        0x00000c64:    f7ffff88    ....    BL       LCD_Writ_Bus ; 0xb78
        0x00000c68:    20f7        .       MOVS     r0,#0xf7
        0x00000c6a:    f7ffff79    ..y.    BL       LCD_WR_REG ; 0xb60
        0x00000c6e:    2020                MOVS     r0,#0x20
        0x00000c70:    f7ffff82    ....    BL       LCD_Writ_Bus ; 0xb78
        0x00000c74:    20ea        .       MOVS     r0,#0xea
        0x00000c76:    f7ffff73    ..s.    BL       LCD_WR_REG ; 0xb60
        0x00000c7a:    2000        .       MOVS     r0,#0
        0x00000c7c:    f7ffff7c    ..|.    BL       LCD_Writ_Bus ; 0xb78
        0x00000c80:    2000        .       MOVS     r0,#0
        0x00000c82:    f7ffff79    ..y.    BL       LCD_Writ_Bus ; 0xb78
        0x00000c86:    20c0        .       MOVS     r0,#0xc0
        0x00000c88:    f7ffff6a    ..j.    BL       LCD_WR_REG ; 0xb60
        0x00000c8c:    2021        !       MOVS     r0,#0x21
        0x00000c8e:    f7ffff73    ..s.    BL       LCD_Writ_Bus ; 0xb78
        0x00000c92:    20c1        .       MOVS     r0,#0xc1
        0x00000c94:    f7ffff64    ..d.    BL       LCD_WR_REG ; 0xb60
        0x00000c98:    2012        .       MOVS     r0,#0x12
        0x00000c9a:    f7ffff6d    ..m.    BL       LCD_Writ_Bus ; 0xb78
        0x00000c9e:    20c5        .       MOVS     r0,#0xc5
        0x00000ca0:    f7ffff5e    ..^.    BL       LCD_WR_REG ; 0xb60
        0x00000ca4:    2032        2       MOVS     r0,#0x32
        0x00000ca6:    f7ffff67    ..g.    BL       LCD_Writ_Bus ; 0xb78
        0x00000caa:    203c        <       MOVS     r0,#0x3c
        0x00000cac:    f7ffff64    ..d.    BL       LCD_Writ_Bus ; 0xb78
        0x00000cb0:    20c7        .       MOVS     r0,#0xc7
        0x00000cb2:    f7ffff55    ..U.    BL       LCD_WR_REG ; 0xb60
        0x00000cb6:    20c1        .       MOVS     r0,#0xc1
        0x00000cb8:    f7ffff5e    ..^.    BL       LCD_Writ_Bus ; 0xb78
        0x00000cbc:    2036        6       MOVS     r0,#0x36
        0x00000cbe:    f7ffff4f    ..O.    BL       LCD_WR_REG ; 0xb60
        0x00000cc2:    2008        .       MOVS     r0,#8
        0x00000cc4:    f7ffff58    ..X.    BL       LCD_Writ_Bus ; 0xb78
        0x00000cc8:    203a        :       MOVS     r0,#0x3a
        0x00000cca:    f7ffff49    ..I.    BL       LCD_WR_REG ; 0xb60
        0x00000cce:    2055        U       MOVS     r0,#0x55
        0x00000cd0:    f7ffff52    ..R.    BL       LCD_Writ_Bus ; 0xb78
        0x00000cd4:    20b1        .       MOVS     r0,#0xb1
        0x00000cd6:    f7ffff43    ..C.    BL       LCD_WR_REG ; 0xb60
        0x00000cda:    2000        .       MOVS     r0,#0
        0x00000cdc:    f7ffff4c    ..L.    BL       LCD_Writ_Bus ; 0xb78
        0x00000ce0:    2018        .       MOVS     r0,#0x18
        0x00000ce2:    f7ffff49    ..I.    BL       LCD_Writ_Bus ; 0xb78
        0x00000ce6:    20b6        .       MOVS     r0,#0xb6
        0x00000ce8:    f7ffff3a    ..:.    BL       LCD_WR_REG ; 0xb60
        0x00000cec:    200a        .       MOVS     r0,#0xa
        0x00000cee:    f7ffff43    ..C.    BL       LCD_Writ_Bus ; 0xb78
        0x00000cf2:    20a2        .       MOVS     r0,#0xa2
        0x00000cf4:    f7ffff40    ..@.    BL       LCD_Writ_Bus ; 0xb78
        0x00000cf8:    20f2        .       MOVS     r0,#0xf2
        0x00000cfa:    f7ffff31    ..1.    BL       LCD_WR_REG ; 0xb60
        0x00000cfe:    2000        .       MOVS     r0,#0
        0x00000d00:    f7ffff3a    ..:.    BL       LCD_Writ_Bus ; 0xb78
        0x00000d04:    2026        &       MOVS     r0,#0x26
        0x00000d06:    f7ffff2b    ..+.    BL       LCD_WR_REG ; 0xb60
        0x00000d0a:    2001        .       MOVS     r0,#1
        0x00000d0c:    f7ffff34    ..4.    BL       LCD_Writ_Bus ; 0xb78
        0x00000d10:    20e0        .       MOVS     r0,#0xe0
        0x00000d12:    f7ffff25    ..%.    BL       LCD_WR_REG ; 0xb60
        0x00000d16:    200f        .       MOVS     r0,#0xf
        0x00000d18:    f7ffff2e    ....    BL       LCD_Writ_Bus ; 0xb78
        0x00000d1c:    2020                MOVS     r0,#0x20
        0x00000d1e:    f7ffff2b    ..+.    BL       LCD_Writ_Bus ; 0xb78
        0x00000d22:    201e        .       MOVS     r0,#0x1e
        0x00000d24:    f7ffff28    ..(.    BL       LCD_Writ_Bus ; 0xb78
        0x00000d28:    2009        .       MOVS     r0,#9
        0x00000d2a:    f7ffff25    ..%.    BL       LCD_Writ_Bus ; 0xb78
        0x00000d2e:    2012        .       MOVS     r0,#0x12
        0x00000d30:    f7ffff22    ..".    BL       LCD_Writ_Bus ; 0xb78
        0x00000d34:    200b        .       MOVS     r0,#0xb
        0x00000d36:    f7ffff1f    ....    BL       LCD_Writ_Bus ; 0xb78
        0x00000d3a:    2050        P       MOVS     r0,#0x50
        0x00000d3c:    f7ffff1c    ....    BL       LCD_Writ_Bus ; 0xb78
        0x00000d40:    20ba        .       MOVS     r0,#0xba
        0x00000d42:    f7ffff19    ....    BL       LCD_Writ_Bus ; 0xb78
        0x00000d46:    2044        D       MOVS     r0,#0x44
        0x00000d48:    f7ffff16    ....    BL       LCD_Writ_Bus ; 0xb78
        0x00000d4c:    2009        .       MOVS     r0,#9
        0x00000d4e:    f7ffff13    ....    BL       LCD_Writ_Bus ; 0xb78
        0x00000d52:    2014        .       MOVS     r0,#0x14
        0x00000d54:    f7ffff10    ....    BL       LCD_Writ_Bus ; 0xb78
        0x00000d58:    2005        .       MOVS     r0,#5
        0x00000d5a:    f7ffff0d    ....    BL       LCD_Writ_Bus ; 0xb78
        0x00000d5e:    2023        #       MOVS     r0,#0x23
        0x00000d60:    f7ffff0a    ....    BL       LCD_Writ_Bus ; 0xb78
        0x00000d64:    2021        !       MOVS     r0,#0x21
        0x00000d66:    f7ffff07    ....    BL       LCD_Writ_Bus ; 0xb78
        0x00000d6a:    2000        .       MOVS     r0,#0
        0x00000d6c:    f7ffff04    ....    BL       LCD_Writ_Bus ; 0xb78
        0x00000d70:    20e1        .       MOVS     r0,#0xe1
        0x00000d72:    f7fffef5    ....    BL       LCD_WR_REG ; 0xb60
        0x00000d76:    2000        .       MOVS     r0,#0
        0x00000d78:    f7fffefe    ....    BL       LCD_Writ_Bus ; 0xb78
        0x00000d7c:    2019        .       MOVS     r0,#0x19
        0x00000d7e:    f7fffefb    ....    BL       LCD_Writ_Bus ; 0xb78
        0x00000d82:    2019        .       MOVS     r0,#0x19
        0x00000d84:    f7fffef8    ....    BL       LCD_Writ_Bus ; 0xb78
        0x00000d88:    2000        .       MOVS     r0,#0
        0x00000d8a:    f7fffef5    ....    BL       LCD_Writ_Bus ; 0xb78
        0x00000d8e:    2012        .       MOVS     r0,#0x12
        0x00000d90:    f7fffef2    ....    BL       LCD_Writ_Bus ; 0xb78
        0x00000d94:    2007        .       MOVS     r0,#7
        0x00000d96:    f7fffeef    ....    BL       LCD_Writ_Bus ; 0xb78
        0x00000d9a:    202d        -       MOVS     r0,#0x2d
        0x00000d9c:    f7fffeec    ....    BL       LCD_Writ_Bus ; 0xb78
        0x00000da0:    2028        (       MOVS     r0,#0x28
        0x00000da2:    f7fffee9    ....    BL       LCD_Writ_Bus ; 0xb78
        0x00000da6:    203f        ?       MOVS     r0,#0x3f
        0x00000da8:    f7fffee6    ....    BL       LCD_Writ_Bus ; 0xb78
        0x00000dac:    2002        .       MOVS     r0,#2
        0x00000dae:    f7fffee3    ....    BL       LCD_Writ_Bus ; 0xb78
        0x00000db2:    200a        .       MOVS     r0,#0xa
        0x00000db4:    f7fffee0    ....    BL       LCD_Writ_Bus ; 0xb78
        0x00000db8:    2008        .       MOVS     r0,#8
        0x00000dba:    f7fffedd    ....    BL       LCD_Writ_Bus ; 0xb78
        0x00000dbe:    2025        %       MOVS     r0,#0x25
        0x00000dc0:    f7fffeda    ....    BL       LCD_Writ_Bus ; 0xb78
        0x00000dc4:    202d        -       MOVS     r0,#0x2d
        0x00000dc6:    f7fffed7    ....    BL       LCD_Writ_Bus ; 0xb78
        0x00000dca:    200f        .       MOVS     r0,#0xf
        0x00000dcc:    f7fffed4    ....    BL       LCD_Writ_Bus ; 0xb78
        0x00000dd0:    2029        )       MOVS     r0,#0x29
        0x00000dd2:    f7fffec5    ....    BL       LCD_WR_REG ; 0xb60
        0x00000dd6:    bd70        p.      POP      {r4-r6,pc}
    $d
        0x00000dd8:    50004200    .B.P    DCD    1342194176
        0x00000ddc:    50004240    @B.P    DCD    1342194240
    $t
    i.SYS_Init
    SYS_Init
        0x00000de0:    b510        ..      PUSH     {r4,lr}
        0x00000de2:    2004        .       MOVS     r0,#4
        0x00000de4:    f7fffb06    ....    BL       CLK_EnableXtalRC ; 0x3f4
        0x00000de8:    2010        .       MOVS     r0,#0x10
        0x00000dea:    f7fffbc5    ....    BL       CLK_WaitClockReady ; 0x578
        0x00000dee:    2100        .!      MOVS     r1,#0
        0x00000df0:    2007        .       MOVS     r0,#7
        0x00000df2:    f7fffb6f    ..o.    BL       CLK_SetHCLK ; 0x4d4
        0x00000df6:    2001        .       MOVS     r0,#1
        0x00000df8:    f7fffafc    ....    BL       CLK_EnableXtalRC ; 0x3f4
        0x00000dfc:    2001        .       MOVS     r0,#1
        0x00000dfe:    f7fffbbb    ....    BL       CLK_WaitClockReady ; 0x578
        0x00000e02:    480c        .H      LDR      r0,[pc,#48] ; [0xe34] = 0x2faf080
        0x00000e04:    f7fffb2a    ..*.    BL       CLK_SetCoreClock ; 0x45c
        0x00000e08:    4c0b        .L      LDR      r4,[pc,#44] ; [0xe38] = 0x57803d10
        0x00000e0a:    4620         F      MOV      r0,r4
        0x00000e0c:    f7fffa10    ....    BL       CLK_EnableModuleClock ; 0x230
        0x00000e10:    2101        .!      MOVS     r1,#1
        0x00000e12:    2200        ."      MOVS     r2,#0
        0x00000e14:    0609        ..      LSLS     r1,r1,#24
        0x00000e16:    4620         F      MOV      r0,r4
        0x00000e18:    f7fffb84    ....    BL       CLK_SetModuleClock ; 0x524
        0x00000e1c:    2005        .       MOVS     r0,#5
        0x00000e1e:    0700        ..      LSLS     r0,r0,#28
        0x00000e20:    6bc1        .k      LDR      r1,[r0,#0x3c]
        0x00000e22:    4a06        .J      LDR      r2,[pc,#24] ; [0xe3c] = 0xfffffcfc
        0x00000e24:    4011        .@      ANDS     r1,r1,r2
        0x00000e26:    63c1        .c      STR      r1,[r0,#0x3c]
        0x00000e28:    6bc1        .k      LDR      r1,[r0,#0x3c]
        0x00000e2a:    2203        ."      MOVS     r2,#3
        0x00000e2c:    4311        .C      ORRS     r1,r1,r2
        0x00000e2e:    63c1        .c      STR      r1,[r0,#0x3c]
        0x00000e30:    bd10        ..      POP      {r4,pc}
    $d
        0x00000e32:    0000        ..      DCW    0
        0x00000e34:    02faf080    ....    DCD    50000000
        0x00000e38:    57803d10    .=.W    DCD    1468022032
        0x00000e3c:    fffffcfc    ....    DCD    4294966524
    $t
    i.SYS_ResetModule
    SYS_ResetModule
        0x00000e40:    2105        .!      MOVS     r1,#5
        0x00000e42:    0e02        ..      LSRS     r2,r0,#24
        0x00000e44:    0709        ..      LSLS     r1,r1,#28
        0x00000e46:    1851        Q.      ADDS     r1,r2,r1
        0x00000e48:    688b        .h      LDR      r3,[r1,#8]
        0x00000e4a:    2201        ."      MOVS     r2,#1
        0x00000e4c:    4082        .@      LSLS     r2,r2,r0
        0x00000e4e:    4313        .C      ORRS     r3,r3,r2
        0x00000e50:    608b        .`      STR      r3,[r1,#8]
        0x00000e52:    6888        .h      LDR      r0,[r1,#8]
        0x00000e54:    4390        .C      BICS     r0,r0,r2
        0x00000e56:    6088        .`      STR      r0,[r1,#8]
        0x00000e58:    4770        pG      BX       lr
        0x00000e5a:    0000        ..      MOVS     r0,r0
    i.SystemCoreClockUpdate
    SystemCoreClockUpdate
        0x00000e5c:    b5f8        ..      PUSH     {r3-r7,lr}
        0x00000e5e:    4d1c        .M      LDR      r5,[pc,#112] ; [0xed0] = 0x50000200
        0x00000e60:    6928        (i      LDR      r0,[r5,#0x10]
        0x00000e62:    0744        D.      LSLS     r4,r0,#29
        0x00000e64:    a01b        ..      ADR      r0,{pc}+0x70 ; 0xed4
        0x00000e66:    6800        .h      LDR      r0,[r0,#0]
        0x00000e68:    9000        ..      STR      r0,[sp,#0]
        0x00000e6a:    6a29        )j      LDR      r1,[r5,#0x20]
        0x00000e6c:    0f64        d.      LSRS     r4,r4,#29
        0x00000e6e:    1328        (.      ASRS     r0,r5,#12
        0x00000e70:    4201        .B      TST      r1,r0
        0x00000e72:    d001        ..      BEQ      0xe78 ; SystemCoreClockUpdate + 28
        0x00000e74:    2000        .       MOVS     r0,#0
        0x00000e76:    e016        ..      B        0xea6 ; SystemCoreClockUpdate + 74
        0x00000e78:    0308        ..      LSLS     r0,r1,#12
        0x00000e7a:    d501        ..      BPL      0xe80 ; SystemCoreClockUpdate + 36
        0x00000e7c:    4816        .H      LDR      r0,[pc,#88] ; [0xed8] = 0x1518000
        0x00000e7e:    e000        ..      B        0xe82 ; SystemCoreClockUpdate + 38
        0x00000e80:    4816        .H      LDR      r0,[pc,#88] ; [0xedc] = 0xb71b00
        0x00000e82:    038a        ..      LSLS     r2,r1,#14
        0x00000e84:    d40f        ..      BMI      0xea6 ; SystemCoreClockUpdate + 74
        0x00000e86:    040a        ..      LSLS     r2,r1,#16
        0x00000e88:    0f92        ..      LSRS     r2,r2,#30
        0x00000e8a:    466b        kF      MOV      r3,sp
        0x00000e8c:    5c9a        .\      LDRB     r2,[r3,r2]
        0x00000e8e:    05cb        ..      LSLS     r3,r1,#23
        0x00000e90:    0489        ..      LSLS     r1,r1,#18
        0x00000e92:    0ddb        ..      LSRS     r3,r3,#23
        0x00000e94:    0ec9        ..      LSRS     r1,r1,#27
        0x00000e96:    1c89        ..      ADDS     r1,r1,#2
        0x00000e98:    0880        ..      LSRS     r0,r0,#2
        0x00000e9a:    1c9b        ..      ADDS     r3,r3,#2
        0x00000e9c:    4351        QC      MULS     r1,r2,r1
        0x00000e9e:    4358        XC      MULS     r0,r3,r0
        0x00000ea0:    f7fff94c    ..L.    BL       __aeabi_uidiv ; 0x13c
        0x00000ea4:    0080        ..      LSLS     r0,r0,#2
        0x00000ea6:    4e0e        .N      LDR      r6,[pc,#56] ; [0xee0] = 0x20000000
        0x00000ea8:    2c02        .,      CMP      r4,#2
        0x00000eaa:    60b0        .`      STR      r0,[r6,#8]
        0x00000eac:    d002        ..      BEQ      0xeb4 ; SystemCoreClockUpdate + 88
        0x00000eae:    490d        .I      LDR      r1,[pc,#52] ; [0xee4] = 0x1330
        0x00000eb0:    00a0        ..      LSLS     r0,r4,#2
        0x00000eb2:    5808        .X      LDR      r0,[r1,r0]
        0x00000eb4:    69a9        .i      LDR      r1,[r5,#0x18]
        0x00000eb6:    0709        ..      LSLS     r1,r1,#28
        0x00000eb8:    0f09        ..      LSRS     r1,r1,#28
        0x00000eba:    1c49        I.      ADDS     r1,r1,#1
        0x00000ebc:    f7fff93e    ..>.    BL       __aeabi_uidiv ; 0x13c
        0x00000ec0:    4909        .I      LDR      r1,[pc,#36] ; [0xee8] = 0xf4240
        0x00000ec2:    6030        0`      STR      r0,[r6,#0]
        0x00000ec4:    104a        J.      ASRS     r2,r1,#1
        0x00000ec6:    1880        ..      ADDS     r0,r0,r2
        0x00000ec8:    f7fff938    ..8.    BL       __aeabi_uidiv ; 0x13c
        0x00000ecc:    6070        p`      STR      r0,[r6,#4]
        0x00000ece:    bdf8        ..      POP      {r3-r7,pc}
    $d
        0x00000ed0:    50000200    ...P    DCD    1342177792
        0x00000ed4:    04020201    ....    DCD    67240449
        0x00000ed8:    01518000    ..Q.    DCD    22118400
        0x00000edc:    00b71b00    ....    DCD    12000000
        0x00000ee0:    20000000    ...     DCD    536870912
        0x00000ee4:    00001330    0...    DCD    4912
        0x00000ee8:    000f4240    @B..    DCD    1000000
    $t
    i.SystemInit
    SystemInit
        0x00000eec:    4770        pG      BX       lr
        0x00000eee:    0000        ..      MOVS     r0,r0
    i.UART_Open
    UART_Open
        0x00000ef0:    b5f0        ..      PUSH     {r4-r7,lr}
        0x00000ef2:    4604        .F      MOV      r4,r0
        0x00000ef4:    481c        .H      LDR      r0,[pc,#112] ; [0xf68] = 0x1350
        0x00000ef6:    460d        .F      MOV      r5,r1
        0x00000ef8:    c80f        ..      LDM      r0,{r0-r3}
        0x00000efa:    b085        ..      SUB      sp,sp,#0x14
        0x00000efc:    466e        nF      MOV      r6,sp
        0x00000efe:    c60f        ..      STM      r6!,{r0-r3}
        0x00000f00:    481a        .H      LDR      r0,[pc,#104] ; [0xf6c] = 0x50000200
        0x00000f02:    6941        Ai      LDR      r1,[r0,#0x14]
        0x00000f04:    6980        .i      LDR      r0,[r0,#0x18]
        0x00000f06:    018a        ..      LSLS     r2,r1,#6
        0x00000f08:    2103        .!      MOVS     r1,#3
        0x00000f0a:    0f96        ..      LSRS     r6,r2,#30
        0x00000f0c:    0500        ..      LSLS     r0,r0,#20
        0x00000f0e:    0f07        ..      LSRS     r7,r0,#28
        0x00000f10:    2000        .       MOVS     r0,#0
        0x00000f12:    6320         c      STR      r0,[r4,#0x30]
        0x00000f14:    60e1        .`      STR      r1,[r4,#0xc]
        0x00000f16:    68a0        .h      LDR      r0,[r4,#8]
        0x00000f18:    4915        .I      LDR      r1,[pc,#84] ; [0xf70] = 0xfff0ff0f
        0x00000f1a:    4008        .@      ANDS     r0,r0,r1
        0x00000f1c:    60a0        .`      STR      r0,[r4,#8]
        0x00000f1e:    2e01        ..      CMP      r6,#1
        0x00000f20:    d102        ..      BNE      0xf28 ; UART_Open + 56
        0x00000f22:    f7fffa6f    ..o.    BL       CLK_GetPLLClockFreq ; 0x404
        0x00000f26:    9001        ..      STR      r0,[sp,#4]
        0x00000f28:    2d00        .-      CMP      r5,#0
        0x00000f2a:    d01b        ..      BEQ      0xf64 ; UART_Open + 116
        0x00000f2c:    00b1        ..      LSLS     r1,r6,#2
        0x00000f2e:    4668        hF      MOV      r0,sp
        0x00000f30:    5840        @X      LDR      r0,[r0,r1]
        0x00000f32:    1c79        y.      ADDS     r1,r7,#1
        0x00000f34:    f7fff902    ....    BL       __aeabi_uidiv ; 0x13c
        0x00000f38:    4606        .F      MOV      r6,r0
        0x00000f3a:    0869        i.      LSRS     r1,r5,#1
        0x00000f3c:    1840        @.      ADDS     r0,r0,r1
        0x00000f3e:    4629        )F      MOV      r1,r5
        0x00000f40:    f7fff8fc    ....    BL       __aeabi_uidiv ; 0x13c
        0x00000f44:    490b        .I      LDR      r1,[pc,#44] ; [0xf74] = 0xffff
        0x00000f46:    1e80        ..      SUBS     r0,r0,#2
        0x00000f48:    4288        .B      CMP      r0,r1
        0x00000f4a:    d907        ..      BLS      0xf5c ; UART_Open + 108
        0x00000f4c:    00e9        ..      LSLS     r1,r5,#3
        0x00000f4e:    1870        p.      ADDS     r0,r6,r1
        0x00000f50:    4629        )F      MOV      r1,r5
        0x00000f52:    f7fff8f3    ....    BL       __aeabi_uidiv ; 0x13c
        0x00000f56:    0900        ..      LSRS     r0,r0,#4
        0x00000f58:    1e80        ..      SUBS     r0,r0,#2
        0x00000f5a:    e002        ..      B        0xf62 ; UART_Open + 114
        0x00000f5c:    2103        .!      MOVS     r1,#3
        0x00000f5e:    0709        ..      LSLS     r1,r1,#28
        0x00000f60:    4308        .C      ORRS     r0,r0,r1
        0x00000f62:    6260        `b      STR      r0,[r4,#0x24]
        0x00000f64:    b005        ..      ADD      sp,sp,#0x14
        0x00000f66:    bdf0        ..      POP      {r4-r7,pc}
    $d
        0x00000f68:    00001350    P...    DCD    4944
        0x00000f6c:    50000200    ...P    DCD    1342177792
        0x00000f70:    fff0ff0f    ....    DCD    4293984015
        0x00000f74:    0000ffff    ....    DCD    65535
    $t
    i.__0printf$5
    __0printf$5
    __1printf$5
    __2printf
        0x00000f78:    b40f        ..      PUSH     {r0-r3}
        0x00000f7a:    b510        ..      PUSH     {r4,lr}
        0x00000f7c:    a903        ..      ADD      r1,sp,#0xc
        0x00000f7e:    4b04        .K      LDR      r3,[pc,#16] ; [0xf90] = 0x1295
        0x00000f80:    4a04        .J      LDR      r2,[pc,#16] ; [0xf94] = 0x2000000c
        0x00000f82:    9802        ..      LDR      r0,[sp,#8]
        0x00000f84:    f000f818    ....    BL       _printf_core ; 0xfb8
        0x00000f88:    bc10        ..      POP      {r4}
        0x00000f8a:    bc08        ..      POP      {r3}
        0x00000f8c:    b004        ..      ADD      sp,sp,#0x10
        0x00000f8e:    4718        .G      BX       r3
    $d
        0x00000f90:    00001295    ....    DCD    4757
        0x00000f94:    2000000c    ...     DCD    536870924
    $t
    i.__scatterload_copy
    __scatterload_copy
        0x00000f98:    e002        ..      B        0xfa0 ; __scatterload_copy + 8
        0x00000f9a:    c808        ..      LDM      r0!,{r3}
        0x00000f9c:    1f12        ..      SUBS     r2,r2,#4
        0x00000f9e:    c108        ..      STM      r1!,{r3}
        0x00000fa0:    2a00        .*      CMP      r2,#0
        0x00000fa2:    d1fa        ..      BNE      0xf9a ; __scatterload_copy + 2
        0x00000fa4:    4770        pG      BX       lr
    i.__scatterload_null
    __scatterload_null
        0x00000fa6:    4770        pG      BX       lr
    i.__scatterload_zeroinit
    __scatterload_zeroinit
        0x00000fa8:    2000        .       MOVS     r0,#0
        0x00000faa:    e001        ..      B        0xfb0 ; __scatterload_zeroinit + 8
        0x00000fac:    c101        ..      STM      r1!,{r0}
        0x00000fae:    1f12        ..      SUBS     r2,r2,#4
        0x00000fb0:    2a00        .*      CMP      r2,#0
        0x00000fb2:    d1fb        ..      BNE      0xfac ; __scatterload_zeroinit + 4
        0x00000fb4:    4770        pG      BX       lr
        0x00000fb6:    0000        ..      MOVS     r0,r0
    i._printf_core
    _printf_core
        0x00000fb8:    b5ff        ..      PUSH     {r0-r7,lr}
        0x00000fba:    b08f        ..      SUB      sp,sp,#0x3c
        0x00000fbc:    460f        .F      MOV      r7,r1
        0x00000fbe:    4604        .F      MOV      r4,r0
        0x00000fc0:    2600        .&      MOVS     r6,#0
        0x00000fc2:    e006        ..      B        0xfd2 ; _printf_core + 26
        0x00000fc4:    2825        %(      CMP      r0,#0x25
        0x00000fc6:    d00a        ..      BEQ      0xfde ; _printf_core + 38
        0x00000fc8:    9a12        ..      LDR      r2,[sp,#0x48]
        0x00000fca:    9911        ..      LDR      r1,[sp,#0x44]
        0x00000fcc:    4790        .G      BLX      r2
        0x00000fce:    1c64        d.      ADDS     r4,r4,#1
        0x00000fd0:    1c76        v.      ADDS     r6,r6,#1
        0x00000fd2:    7820         x      LDRB     r0,[r4,#0]
        0x00000fd4:    2800        .(      CMP      r0,#0
        0x00000fd6:    d1f5        ..      BNE      0xfc4 ; _printf_core + 12
        0x00000fd8:    4630        0F      MOV      r0,r6
        0x00000fda:    b013        ..      ADD      sp,sp,#0x4c
        0x00000fdc:    bdf0        ..      POP      {r4-r7,pc}
        0x00000fde:    2500        .%      MOVS     r5,#0
        0x00000fe0:    2101        .!      MOVS     r1,#1
        0x00000fe2:    4aa1        .J      LDR      r2,[pc,#644] ; [0x1268] = 0x12809
        0x00000fe4:    9500        ..      STR      r5,[sp,#0]
        0x00000fe6:    e000        ..      B        0xfea ; _printf_core + 50
        0x00000fe8:    4305        .C      ORRS     r5,r5,r0
        0x00000fea:    1c64        d.      ADDS     r4,r4,#1
        0x00000fec:    7823        #x      LDRB     r3,[r4,#0]
        0x00000fee:    4608        .F      MOV      r0,r1
        0x00000ff0:    3b20         ;      SUBS     r3,r3,#0x20
        0x00000ff2:    4098        .@      LSLS     r0,r0,r3
        0x00000ff4:    4210        .B      TST      r0,r2
        0x00000ff6:    d1f7        ..      BNE      0xfe8 ; _printf_core + 48
        0x00000ff8:    7820         x      LDRB     r0,[r4,#0]
        0x00000ffa:    282e        .(      CMP      r0,#0x2e
        0x00000ffc:    d115        ..      BNE      0x102a ; _printf_core + 114
        0x00000ffe:    2004        .       MOVS     r0,#4
        0x00001000:    4305        .C      ORRS     r5,r5,r0
        0x00001002:    7860        `x      LDRB     r0,[r4,#1]
        0x00001004:    1c64        d.      ADDS     r4,r4,#1
        0x00001006:    282a        *(      CMP      r0,#0x2a
        0x00001008:    d10a        ..      BNE      0x1020 ; _printf_core + 104
        0x0000100a:    cf01        ..      LDM      r7!,{r0}
        0x0000100c:    1c64        d.      ADDS     r4,r4,#1
        0x0000100e:    9000        ..      STR      r0,[sp,#0]
        0x00001010:    e00b        ..      B        0x102a ; _printf_core + 114
        0x00001012:    9900        ..      LDR      r1,[sp,#0]
        0x00001014:    220a        ."      MOVS     r2,#0xa
        0x00001016:    4351        QC      MULS     r1,r2,r1
        0x00001018:    3930        09      SUBS     r1,r1,#0x30
        0x0000101a:    1840        @.      ADDS     r0,r0,r1
        0x0000101c:    1c64        d.      ADDS     r4,r4,#1
        0x0000101e:    9000        ..      STR      r0,[sp,#0]
        0x00001020:    7820         x      LDRB     r0,[r4,#0]
        0x00001022:    4601        .F      MOV      r1,r0
        0x00001024:    3930        09      SUBS     r1,r1,#0x30
        0x00001026:    2909        .)      CMP      r1,#9
        0x00001028:    d9f3        ..      BLS      0x1012 ; _printf_core + 90
        0x0000102a:    7820         x      LDRB     r0,[r4,#0]
        0x0000102c:    286c        l(      CMP      r0,#0x6c
        0x0000102e:    d00e        ..      BEQ      0x104e ; _printf_core + 150
        0x00001030:    dc04        ..      BGT      0x103c ; _printf_core + 132
        0x00001032:    284c        L(      CMP      r0,#0x4c
        0x00001034:    d013        ..      BEQ      0x105e ; _printf_core + 166
        0x00001036:    286a        j(      CMP      r0,#0x6a
        0x00001038:    d112        ..      BNE      0x1060 ; _printf_core + 168
        0x0000103a:    e004        ..      B        0x1046 ; _printf_core + 142
        0x0000103c:    2874        t(      CMP      r0,#0x74
        0x0000103e:    d00e        ..      BEQ      0x105e ; _printf_core + 166
        0x00001040:    287a        z(      CMP      r0,#0x7a
        0x00001042:    d10d        ..      BNE      0x1060 ; _printf_core + 168
        0x00001044:    e00b        ..      B        0x105e ; _printf_core + 166
        0x00001046:    2001        .       MOVS     r0,#1
        0x00001048:    0540        @.      LSLS     r0,r0,#21
        0x0000104a:    4305        .C      ORRS     r5,r5,r0
        0x0000104c:    e007        ..      B        0x105e ; _printf_core + 166
        0x0000104e:    2101        .!      MOVS     r1,#1
        0x00001050:    0509        ..      LSLS     r1,r1,#20
        0x00001052:    7862        bx      LDRB     r2,[r4,#1]
        0x00001054:    430d        .C      ORRS     r5,r5,r1
        0x00001056:    4282        .B      CMP      r2,r0
        0x00001058:    d101        ..      BNE      0x105e ; _printf_core + 166
        0x0000105a:    186d        m.      ADDS     r5,r5,r1
        0x0000105c:    1c64        d.      ADDS     r4,r4,#1
        0x0000105e:    1c64        d.      ADDS     r4,r4,#1
        0x00001060:    7820         x      LDRB     r0,[r4,#0]
        0x00001062:    4686        .F      MOV      lr,r0
        0x00001064:    2869        i(      CMP      r0,#0x69
        0x00001066:    d04a        J.      BEQ      0x10fe ; _printf_core + 326
        0x00001068:    dc08        ..      BGT      0x107c ; _printf_core + 196
        0x0000106a:    2800        .(      CMP      r0,#0
        0x0000106c:    d0b4        ..      BEQ      0xfd8 ; _printf_core + 32
        0x0000106e:    2858        X(      CMP      r0,#0x58
        0x00001070:    d06d        m.      BEQ      0x114e ; _printf_core + 406
        0x00001072:    2863        c(      CMP      r0,#0x63
        0x00001074:    d010        ..      BEQ      0x1098 ; _printf_core + 224
        0x00001076:    2864        d(      CMP      r0,#0x64
        0x00001078:    d108        ..      BNE      0x108c ; _printf_core + 212
        0x0000107a:    e040        @.      B        0x10fe ; _printf_core + 326
        0x0000107c:    2870        p(      CMP      r0,#0x70
        0x0000107e:    d06b        k.      BEQ      0x1158 ; _printf_core + 416
        0x00001080:    2873        s(      CMP      r0,#0x73
        0x00001082:    d012        ..      BEQ      0x10aa ; _printf_core + 242
        0x00001084:    2875        u(      CMP      r0,#0x75
        0x00001086:    d060        `.      BEQ      0x114a ; _printf_core + 402
        0x00001088:    2878        x(      CMP      r0,#0x78
        0x0000108a:    d060        `.      BEQ      0x114e ; _printf_core + 406
        0x0000108c:    9a12        ..      LDR      r2,[sp,#0x48]
        0x0000108e:    4670        pF      MOV      r0,lr
        0x00001090:    9911        ..      LDR      r1,[sp,#0x44]
        0x00001092:    4790        .G      BLX      r2
        0x00001094:    1c76        v.      ADDS     r6,r6,#1
        0x00001096:    e0e5        ..      B        0x1264 ; _printf_core + 684
        0x00001098:    7838        8x      LDRB     r0,[r7,#0]
        0x0000109a:    4669        iF      MOV      r1,sp
        0x0000109c:    7208        .r      STRB     r0,[r1,#8]
        0x0000109e:    2000        .       MOVS     r0,#0
        0x000010a0:    7248        Hr      STRB     r0,[r1,#9]
        0x000010a2:    a802        ..      ADD      r0,sp,#8
        0x000010a4:    9001        ..      STR      r0,[sp,#4]
        0x000010a6:    2001        .       MOVS     r0,#1
        0x000010a8:    e003        ..      B        0x10b2 ; _printf_core + 250
        0x000010aa:    6838        8h      LDR      r0,[r7,#0]
        0x000010ac:    9001        ..      STR      r0,[sp,#4]
        0x000010ae:    2000        .       MOVS     r0,#0
        0x000010b0:    43c0        .C      MVNS     r0,r0
        0x000010b2:    1d3f        ?.      ADDS     r7,r7,#4
        0x000010b4:    0769        i.      LSLS     r1,r5,#29
        0x000010b6:    d50c        ..      BPL      0x10d2 ; _printf_core + 282
        0x000010b8:    2500        .%      MOVS     r5,#0
        0x000010ba:    e000        ..      B        0x10be ; _printf_core + 262
        0x000010bc:    1c6d        m.      ADDS     r5,r5,#1
        0x000010be:    9900        ..      LDR      r1,[sp,#0]
        0x000010c0:    428d        .B      CMP      r5,r1
        0x000010c2:    da0f        ..      BGE      0x10e4 ; _printf_core + 300
        0x000010c4:    4285        .B      CMP      r5,r0
        0x000010c6:    dbf9        ..      BLT      0x10bc ; _printf_core + 260
        0x000010c8:    9901        ..      LDR      r1,[sp,#4]
        0x000010ca:    5d49        I]      LDRB     r1,[r1,r5]
        0x000010cc:    2900        .)      CMP      r1,#0
        0x000010ce:    d1f5        ..      BNE      0x10bc ; _printf_core + 260
        0x000010d0:    e008        ..      B        0x10e4 ; _printf_core + 300
        0x000010d2:    2500        .%      MOVS     r5,#0
        0x000010d4:    e000        ..      B        0x10d8 ; _printf_core + 288
        0x000010d6:    1c6d        m.      ADDS     r5,r5,#1
        0x000010d8:    4285        .B      CMP      r5,r0
        0x000010da:    dbfc        ..      BLT      0x10d6 ; _printf_core + 286
        0x000010dc:    9901        ..      LDR      r1,[sp,#4]
        0x000010de:    5d49        I]      LDRB     r1,[r1,r5]
        0x000010e0:    2900        .)      CMP      r1,#0
        0x000010e2:    d1f8        ..      BNE      0x10d6 ; _printf_core + 286
        0x000010e4:    1976        v.      ADDS     r6,r6,r5
        0x000010e6:    e007        ..      B        0x10f8 ; _printf_core + 320
        0x000010e8:    9801        ..      LDR      r0,[sp,#4]
        0x000010ea:    9901        ..      LDR      r1,[sp,#4]
        0x000010ec:    7800        .x      LDRB     r0,[r0,#0]
        0x000010ee:    1c49        I.      ADDS     r1,r1,#1
        0x000010f0:    9101        ..      STR      r1,[sp,#4]
        0x000010f2:    9a12        ..      LDR      r2,[sp,#0x48]
        0x000010f4:    9911        ..      LDR      r1,[sp,#0x44]
        0x000010f6:    4790        .G      BLX      r2
        0x000010f8:    1e6d        m.      SUBS     r5,r5,#1
        0x000010fa:    d2f5        ..      BCS      0x10e8 ; _printf_core + 304
        0x000010fc:    e0b2        ..      B        0x1264 ; _printf_core + 684
        0x000010fe:    200a        .       MOVS     r0,#0xa
        0x00001100:    9002        ..      STR      r0,[sp,#8]
        0x00001102:    2100        .!      MOVS     r1,#0
        0x00001104:    0268        h.      LSLS     r0,r5,#9
        0x00001106:    0f40        @.      LSRS     r0,r0,#29
        0x00001108:    9103        ..      STR      r1,[sp,#0xc]
        0x0000110a:    2802        .(      CMP      r0,#2
        0x0000110c:    d00c        ..      BEQ      0x1128 ; _printf_core + 368
        0x0000110e:    cf01        ..      LDM      r7!,{r0}
        0x00001110:    17c1        ..      ASRS     r1,r0,#31
        0x00001112:    4684        .F      MOV      r12,r0
        0x00001114:    2900        .)      CMP      r1,#0
        0x00001116:    da0d        ..      BGE      0x1134 ; _printf_core + 380
        0x00001118:    4662        bF      MOV      r2,r12
        0x0000111a:    4608        .F      MOV      r0,r1
        0x0000111c:    4252        RB      RSBS     r2,r2,#0
        0x0000111e:    2100        .!      MOVS     r1,#0
        0x00001120:    4181        .A      SBCS     r1,r1,r0
        0x00001122:    4694        .F      MOV      r12,r2
        0x00001124:    202d        -       MOVS     r0,#0x2d
        0x00001126:    e008        ..      B        0x113a ; _printf_core + 386
        0x00001128:    1dff        ..      ADDS     r7,r7,#7
        0x0000112a:    08ff        ..      LSRS     r7,r7,#3
        0x0000112c:    00ff        ..      LSLS     r7,r7,#3
        0x0000112e:    cf03        ..      LDM      r7!,{r0,r1}
        0x00001130:    4684        .F      MOV      r12,r0
        0x00001132:    e7ef        ..      B        0x1114 ; _printf_core + 348
        0x00001134:    0528        (.      LSLS     r0,r5,#20
        0x00001136:    d504        ..      BPL      0x1142 ; _printf_core + 394
        0x00001138:    202b        +       MOVS     r0,#0x2b
        0x0000113a:    466a        jF      MOV      r2,sp
        0x0000113c:    7410        .t      STRB     r0,[r2,#0x10]
        0x0000113e:    2001        .       MOVS     r0,#1
        0x00001140:    e03c        <.      B        0x11bc ; _printf_core + 516
        0x00001142:    07e8        ..      LSLS     r0,r5,#31
        0x00001144:    d03a        :.      BEQ      0x11bc ; _printf_core + 516
        0x00001146:    2020                MOVS     r0,#0x20
        0x00001148:    e7f7        ..      B        0x113a ; _printf_core + 386
        0x0000114a:    200a        .       MOVS     r0,#0xa
        0x0000114c:    e000        ..      B        0x1150 ; _printf_core + 408
        0x0000114e:    2010        .       MOVS     r0,#0x10
        0x00001150:    2100        .!      MOVS     r1,#0
        0x00001152:    9103        ..      STR      r1,[sp,#0xc]
        0x00001154:    9002        ..      STR      r0,[sp,#8]
        0x00001156:    e007        ..      B        0x1168 ; _printf_core + 432
        0x00001158:    2010        .       MOVS     r0,#0x10
        0x0000115a:    9002        ..      STR      r0,[sp,#8]
        0x0000115c:    2100        .!      MOVS     r1,#0
        0x0000115e:    2004        .       MOVS     r0,#4
        0x00001160:    4305        .C      ORRS     r5,r5,r0
        0x00001162:    2008        .       MOVS     r0,#8
        0x00001164:    9103        ..      STR      r1,[sp,#0xc]
        0x00001166:    9000        ..      STR      r0,[sp,#0]
        0x00001168:    0268        h.      LSLS     r0,r5,#9
        0x0000116a:    0f40        @.      LSRS     r0,r0,#29
        0x0000116c:    2802        .(      CMP      r0,#2
        0x0000116e:    d010        ..      BEQ      0x1192 ; _printf_core + 474
        0x00001170:    cf01        ..      LDM      r7!,{r0}
        0x00001172:    2100        .!      MOVS     r1,#0
        0x00001174:    4684        .F      MOV      r12,r0
        0x00001176:    2000        .       MOVS     r0,#0
        0x00001178:    900d        ..      STR      r0,[sp,#0x34]
        0x0000117a:    0728        (.      LSLS     r0,r5,#28
        0x0000117c:    d51f        ..      BPL      0x11be ; _printf_core + 518
        0x0000117e:    4670        pF      MOV      r0,lr
        0x00001180:    2870        p(      CMP      r0,#0x70
        0x00001182:    d00c        ..      BEQ      0x119e ; _printf_core + 486
        0x00001184:    9a02        ..      LDR      r2,[sp,#8]
        0x00001186:    2010        .       MOVS     r0,#0x10
        0x00001188:    9b03        ..      LDR      r3,[sp,#0xc]
        0x0000118a:    4042        B@      EORS     r2,r2,r0
        0x0000118c:    431a        .C      ORRS     r2,r2,r3
        0x0000118e:    d00c        ..      BEQ      0x11aa ; _printf_core + 498
        0x00001190:    e015        ..      B        0x11be ; _printf_core + 518
        0x00001192:    1dff        ..      ADDS     r7,r7,#7
        0x00001194:    08ff        ..      LSRS     r7,r7,#3
        0x00001196:    00ff        ..      LSLS     r7,r7,#3
        0x00001198:    cf03        ..      LDM      r7!,{r0,r1}
        0x0000119a:    4684        .F      MOV      r12,r0
        0x0000119c:    e7eb        ..      B        0x1176 ; _printf_core + 446
        0x0000119e:    2040        @       MOVS     r0,#0x40
        0x000011a0:    466a        jF      MOV      r2,sp
        0x000011a2:    7410        .t      STRB     r0,[r2,#0x10]
        0x000011a4:    2001        .       MOVS     r0,#1
        0x000011a6:    900d        ..      STR      r0,[sp,#0x34]
        0x000011a8:    e00c        ..      B        0x11c4 ; _printf_core + 524
        0x000011aa:    4660        `F      MOV      r0,r12
        0x000011ac:    4308        .C      ORRS     r0,r0,r1
        0x000011ae:    d006        ..      BEQ      0x11be ; _printf_core + 518
        0x000011b0:    2030        0       MOVS     r0,#0x30
        0x000011b2:    466a        jF      MOV      r2,sp
        0x000011b4:    7410        .t      STRB     r0,[r2,#0x10]
        0x000011b6:    4670        pF      MOV      r0,lr
        0x000011b8:    7450        Pt      STRB     r0,[r2,#0x11]
        0x000011ba:    2002        .       MOVS     r0,#2
        0x000011bc:    900d        ..      STR      r0,[sp,#0x34]
        0x000011be:    4670        pF      MOV      r0,lr
        0x000011c0:    2858        X(      CMP      r0,#0x58
        0x000011c2:    d004        ..      BEQ      0x11ce ; _printf_core + 534
        0x000011c4:    a029        ).      ADR      r0,{pc}+0xa8 ; 0x126c
        0x000011c6:    9001        ..      STR      r0,[sp,#4]
        0x000011c8:    a80d        ..      ADD      r0,sp,#0x34
        0x000011ca:    900e        ..      STR      r0,[sp,#0x38]
        0x000011cc:    e00d        ..      B        0x11ea ; _printf_core + 562
        0x000011ce:    a02c        ,.      ADR      r0,{pc}+0xb2 ; 0x1280
        0x000011d0:    e7f9        ..      B        0x11c6 ; _printf_core + 526
        0x000011d2:    4660        `F      MOV      r0,r12
        0x000011d4:    9b03        ..      LDR      r3,[sp,#0xc]
        0x000011d6:    9a02        ..      LDR      r2,[sp,#8]
        0x000011d8:    f7feffc6    ....    BL       __aeabi_uldivmod ; 0x168
        0x000011dc:    9b01        ..      LDR      r3,[sp,#4]
        0x000011de:    4684        .F      MOV      r12,r0
        0x000011e0:    5c9b        .\      LDRB     r3,[r3,r2]
        0x000011e2:    9a0e        ..      LDR      r2,[sp,#0x38]
        0x000011e4:    1e52        R.      SUBS     r2,r2,#1
        0x000011e6:    920e        ..      STR      r2,[sp,#0x38]
        0x000011e8:    7013        .p      STRB     r3,[r2,#0]
        0x000011ea:    4660        `F      MOV      r0,r12
        0x000011ec:    4308        .C      ORRS     r0,r0,r1
        0x000011ee:    d1f0        ..      BNE      0x11d2 ; _printf_core + 538
        0x000011f0:    980e        ..      LDR      r0,[sp,#0x38]
        0x000011f2:    a905        ..      ADD      r1,sp,#0x14
        0x000011f4:    1a08        ..      SUBS     r0,r1,r0
        0x000011f6:    3020         0      ADDS     r0,r0,#0x20
        0x000011f8:    9001        ..      STR      r0,[sp,#4]
        0x000011fa:    0768        h.      LSLS     r0,r5,#29
        0x000011fc:    d501        ..      BPL      0x1202 ; _printf_core + 586
        0x000011fe:    9800        ..      LDR      r0,[sp,#0]
        0x00001200:    e001        ..      B        0x1206 ; _printf_core + 590
        0x00001202:    2001        .       MOVS     r0,#1
        0x00001204:    9000        ..      STR      r0,[sp,#0]
        0x00001206:    9901        ..      LDR      r1,[sp,#4]
        0x00001208:    4288        .B      CMP      r0,r1
        0x0000120a:    dd03        ..      BLE      0x1214 ; _printf_core + 604
        0x0000120c:    4601        .F      MOV      r1,r0
        0x0000120e:    9801        ..      LDR      r0,[sp,#4]
        0x00001210:    1a08        ..      SUBS     r0,r1,r0
        0x00001212:    e000        ..      B        0x1216 ; _printf_core + 606
        0x00001214:    2000        .       MOVS     r0,#0
        0x00001216:    2500        .%      MOVS     r5,#0
        0x00001218:    9000        ..      STR      r0,[sp,#0]
        0x0000121a:    e006        ..      B        0x122a ; _printf_core + 626
        0x0000121c:    a804        ..      ADD      r0,sp,#0x10
        0x0000121e:    9a12        ..      LDR      r2,[sp,#0x48]
        0x00001220:    5d40        @]      LDRB     r0,[r0,r5]
        0x00001222:    9911        ..      LDR      r1,[sp,#0x44]
        0x00001224:    4790        .G      BLX      r2
        0x00001226:    1c6d        m.      ADDS     r5,r5,#1
        0x00001228:    1c76        v.      ADDS     r6,r6,#1
        0x0000122a:    980d        ..      LDR      r0,[sp,#0x34]
        0x0000122c:    4285        .B      CMP      r5,r0
        0x0000122e:    dbf5        ..      BLT      0x121c ; _printf_core + 612
        0x00001230:    e004        ..      B        0x123c ; _printf_core + 644
        0x00001232:    9a12        ..      LDR      r2,[sp,#0x48]
        0x00001234:    2030        0       MOVS     r0,#0x30
        0x00001236:    9911        ..      LDR      r1,[sp,#0x44]
        0x00001238:    4790        .G      BLX      r2
        0x0000123a:    1c76        v.      ADDS     r6,r6,#1
        0x0000123c:    9900        ..      LDR      r1,[sp,#0]
        0x0000123e:    1e48        H.      SUBS     r0,r1,#1
        0x00001240:    9000        ..      STR      r0,[sp,#0]
        0x00001242:    2900        .)      CMP      r1,#0
        0x00001244:    dcf5        ..      BGT      0x1232 ; _printf_core + 634
        0x00001246:    e008        ..      B        0x125a ; _printf_core + 674
        0x00001248:    980e        ..      LDR      r0,[sp,#0x38]
        0x0000124a:    990e        ..      LDR      r1,[sp,#0x38]
        0x0000124c:    7800        .x      LDRB     r0,[r0,#0]
        0x0000124e:    1c49        I.      ADDS     r1,r1,#1
        0x00001250:    910e        ..      STR      r1,[sp,#0x38]
        0x00001252:    9a12        ..      LDR      r2,[sp,#0x48]
        0x00001254:    9911        ..      LDR      r1,[sp,#0x44]
        0x00001256:    4790        .G      BLX      r2
        0x00001258:    1c76        v.      ADDS     r6,r6,#1
        0x0000125a:    9901        ..      LDR      r1,[sp,#4]
        0x0000125c:    1e48        H.      SUBS     r0,r1,#1
        0x0000125e:    9001        ..      STR      r0,[sp,#4]
        0x00001260:    2900        .)      CMP      r1,#0
        0x00001262:    dcf1        ..      BGT      0x1248 ; _printf_core + 656
        0x00001264:    1c64        d.      ADDS     r4,r4,#1
        0x00001266:    e6b4        ..      B        0xfd2 ; _printf_core + 26
    $d
        0x00001268:    00012809    .(..    DCD    75785
        0x0000126c:    33323130    0123    DCD    858927408
        0x00001270:    37363534    4567    DCD    926299444
        0x00001274:    62613938    89ab    DCD    1650538808
        0x00001278:    66656463    cdef    DCD    1717920867
        0x0000127c:    00000000    ....    DCD    0
        0x00001280:    33323130    0123    DCD    858927408
        0x00001284:    37363534    4567    DCD    926299444
        0x00001288:    42413938    89AB    DCD    1111570744
        0x0000128c:    46454443    CDEF    DCD    1178944579
        0x00001290:    00000000    ....    DCD    0
    $t
    i.fputc
    fputc
        0x00001294:    4906        .I      LDR      r1,[pc,#24] ; [0x12b0] = 0x40050000
        0x00001296:    698a        .i      LDR      r2,[r1,#0x18]
        0x00001298:    0212        ..      LSLS     r2,r2,#8
        0x0000129a:    d4fc        ..      BMI      0x1296 ; fputc + 2
        0x0000129c:    280a        .(      CMP      r0,#0xa
        0x0000129e:    d104        ..      BNE      0x12aa ; fputc + 22
        0x000012a0:    220d        ."      MOVS     r2,#0xd
        0x000012a2:    600a        .`      STR      r2,[r1,#0]
        0x000012a4:    698a        .i      LDR      r2,[r1,#0x18]
        0x000012a6:    0212        ..      LSLS     r2,r2,#8
        0x000012a8:    d4fc        ..      BMI      0x12a4 ; fputc + 16
        0x000012aa:    6008        .`      STR      r0,[r1,#0]
        0x000012ac:    4770        pG      BX       lr
    $d
        0x000012ae:    0000        ..      DCW    0
        0x000012b0:    40050000    ...@    DCD    1074069504
    $t
    i.main
    main
        0x000012b4:    b530        0.      PUSH     {r4,r5,lr}
        0x000012b6:    4c19        .L      LDR      r4,[pc,#100] ; [0x131c] = 0x50000100
        0x000012b8:    b083        ..      SUB      sp,sp,#0xc
        0x000012ba:    6820         h      LDR      r0,[r4,#0]
        0x000012bc:    2801        .(      CMP      r0,#1
        0x000012be:    d008        ..      BEQ      0x12d2 ; main + 30
        0x000012c0:    2059        Y       MOVS     r0,#0x59
        0x000012c2:    2116        .!      MOVS     r1,#0x16
        0x000012c4:    2288        ."      MOVS     r2,#0x88
        0x000012c6:    6020         `      STR      r0,[r4,#0]
        0x000012c8:    6021        !`      STR      r1,[r4,#0]
        0x000012ca:    6022        "`      STR      r2,[r4,#0]
        0x000012cc:    6823        #h      LDR      r3,[r4,#0]
        0x000012ce:    2b01        .+      CMP      r3,#1
        0x000012d0:    d1f9        ..      BNE      0x12c6 ; main + 18
        0x000012d2:    f7fffd85    ....    BL       SYS_Init ; 0xde0
        0x000012d6:    2500        .%      MOVS     r5,#0
        0x000012d8:    6025        %`      STR      r5,[r4,#0]
        0x000012da:    4811        .H      LDR      r0,[pc,#68] ; [0x1320] = 0x4000010
        0x000012dc:    f7fffdb0    ....    BL       SYS_ResetModule ; 0xe40
        0x000012e0:    21e1        .!      MOVS     r1,#0xe1
        0x000012e2:    0249        I.      LSLS     r1,r1,#9
        0x000012e4:    480f        .H      LDR      r0,[pc,#60] ; [0x1324] = 0x40050000
        0x000012e6:    f7fffe03    ....    BL       UART_Open ; 0xef0
        0x000012ea:    f7fffc5d    ..].    BL       Lcd_Init ; 0xba8
        0x000012ee:    4c0e        .L      LDR      r4,[pc,#56] ; [0x1328] = 0xffff
        0x000012f0:    23ff        .#      MOVS     r3,#0xff
        0x000012f2:    2100        .!      MOVS     r1,#0
        0x000012f4:    3341        A3      ADDS     r3,r3,#0x41
        0x000012f6:    22f0        ."      MOVS     r2,#0xf0
        0x000012f8:    4608        .F      MOV      r0,r1
        0x000012fa:    9400        ..      STR      r4,[sp,#0]
        0x000012fc:    f7fff9e3    ....    BL       LCD_Fill ; 0x6c6
        0x00001300:    2020                MOVS     r0,#0x20
        0x00001302:    231f        .#      MOVS     r3,#0x1f
        0x00001304:    2100        .!      MOVS     r1,#0
        0x00001306:    9001        ..      STR      r0,[sp,#4]
        0x00001308:    02db        ..      LSLS     r3,r3,#11
        0x0000130a:    a208        ..      ADR      r2,{pc}+0x22 ; 0x132c
        0x0000130c:    9502        ..      STR      r5,[sp,#8]
        0x0000130e:    9400        ..      STR      r4,[sp,#0]
        0x00001310:    4608        .F      MOV      r0,r1
        0x00001312:    f7fff9f2    ....    BL       LCD_ShowChinese ; 0x6fa
        0x00001316:    2000        .       MOVS     r0,#0
        0x00001318:    b003        ..      ADD      sp,sp,#0xc
        0x0000131a:    bd30        0.      POP      {r4,r5,pc}
    $d
        0x0000131c:    50000100    ...P    DCD    1342177536
        0x00001320:    04000010    ....    DCD    67108880
        0x00001324:    40050000    ...@    DCD    1074069504
        0x00001328:    0000ffff    ....    DCD    65535
        0x0000132c:    00434343    CCC.    DCD    4408131
    $d.realdata
    .constdata
    gau32ClkSrcTbl
        0x00001330:    00b71b00    ....    DCD    12000000
        0x00001334:    00000000    ....    DCD    0
        0x00001338:    02faf080    ....    DCD    50000000
        0x0000133c:    00002710    .'..    DCD    10000
        0x00001340:    00000000    ....    DCD    0
        0x00001344:    00000000    ....    DCD    0
        0x00001348:    00000000    ....    DCD    0
        0x0000134c:    01518000    ..Q.    DCD    22118400
    .constdata
        0x00001350:    00b71b00    ....    DCD    12000000
        0x00001354:    00000000    ....    DCD    0
        0x00001358:    00000000    ....    DCD    0
        0x0000135c:    01518000    ..Q.    DCD    22118400
        0x00001360:    00b71b00    ....    DCD    12000000
        0x00001364:    00000000    ....    DCD    0
        0x00001368:    00000000    ....    DCD    0
        0x0000136c:    01518000    ..Q.    DCD    22118400
        0x00001370:    00b71b00    ....    DCD    12000000
        0x00001374:    00000000    ....    DCD    0
        0x00001378:    00000000    ....    DCD    0
        0x0000137c:    01518000    ..Q.    DCD    22118400
    .constdata
    ascii_1206
        0x00001380:    00000000    ....    DCD    0
        0x00001384:    00000000    ....    DCD    0
        0x00001388:    00000000    ....    DCD    0
        0x0000138c:    04040000    ....    DCD    67371008
        0x00001390:    00040404    ....    DCD    263172
        0x00001394:    00000400    ....    DCD    1024
        0x00001398:    000a1414    ....    DCD    660500
        0x0000139c:    00000000    ....    DCD    0
        0x000013a0:    00000000    ....    DCD    0
        0x000013a4:    0a0a0000    ....    DCD    168427520
        0x000013a8:    1f0a0a1f    ....    DCD    520751647
        0x000013ac:    00000a0a    ....    DCD    2570
        0x000013b0:    150e0400    ....    DCD    353240064
        0x000013b4:    140c0605    ....    DCD    336332293
        0x000013b8:    00040e15    ....    DCD    265749
        0x000013bc:    15120000    ....    DCD    353501184
        0x000013c0:    2c2e150d    ...,    DCD    741217549
        0x000013c4:    0000122a    *...    DCD    4650
        0x000013c8:    0a040000    ....    DCD    168034304
        0x000013cc:    1515360a    .6..    DCD    353711626
        0x000013d0:    00001629    )...    DCD    5673
        0x000013d4:    00010202    ....    DCD    66050
        0x000013d8:    00000000    ....    DCD    0
        0x000013dc:    00000000    ....    DCD    0
        0x000013e0:    04080810    ....    DCD    67635216
        0x000013e4:    04040404    ....    DCD    67372036
        0x000013e8:    00100808    ....    DCD    1050632
        0x000013ec:    08040402    ....    DCD    134480898
        0x000013f0:    08080808    ....    DCD    134744072
        0x000013f4:    00020404    ....    DCD    132100
        0x000013f8:    04000000    ....    DCD    67108864
        0x000013fc:    150e0e15    ....    DCD    353242645
        0x00001400:    00000004    ....    DCD    4
        0x00001404:    08000000    ....    DCD    134217728
        0x00001408:    08083e08    .>..    DCD    134757896
        0x0000140c:    00000000    ....    DCD    0
        0x00001410:    00000000    ....    DCD    0
        0x00001414:    00000000    ....    DCD    0
        0x00001418:    00010202    ....    DCD    66050
        0x0000141c:    00000000    ....    DCD    0
        0x00001420:    00003f00    .?..    DCD    16128
        0x00001424:    00000000    ....    DCD    0
        0x00001428:    00000000    ....    DCD    0
        0x0000142c:    00000000    ....    DCD    0
        0x00001430:    00000200    ....    DCD    512
        0x00001434:    10102000    . ..    DCD    269492224
        0x00001438:    04040808    ....    DCD    67373064
        0x0000143c:    00010202    ....    DCD    66050
        0x00001440:    110e0000    ....    DCD    286130176
        0x00001444:    11111111    ....    DCD    286331153
        0x00001448:    00000e11    ....    DCD    3601
        0x0000144c:    06040000    ....    DCD    100925440
        0x00001450:    04040404    ....    DCD    67372036
        0x00001454:    00000e04    ....    DCD    3588
        0x00001458:    110e0000    ....    DCD    286130176
        0x0000145c:    02040811    ....    DCD    33818641
        0x00001460:    00001f01    ....    DCD    7937
        0x00001464:    110e0000    ....    DCD    286130176
        0x00001468:    10100c10    ....    DCD    269487120
        0x0000146c:    00000e11    ....    DCD    3601
        0x00001470:    0c080000    ....    DCD    201850880
        0x00001474:    1f090a0c    ....    DCD    520686092
        0x00001478:    00001c08    ....    DCD    7176
        0x0000147c:    011f0000    ....    DCD    18808832
        0x00001480:    10110f01    ....    DCD    269553409
        0x00001484:    00000e11    ....    DCD    3601
        0x00001488:    120c0000    ....    DCD    302776320
        0x0000148c:    11130d01    ....    DCD    286461185
        0x00001490:    00000e11    ....    DCD    3601
        0x00001494:    101e0000    ....    DCD    270401536
        0x00001498:    04040808    ....    DCD    67373064
        0x0000149c:    00000404    ....    DCD    1028
        0x000014a0:    110e0000    ....    DCD    286130176
        0x000014a4:    11110e11    ....    DCD    286330385
        0x000014a8:    00000e11    ....    DCD    3601
        0x000014ac:    110e0000    ....    DCD    286130176
        0x000014b0:    10161911    ....    DCD    269883665
        0x000014b4:    00000609    ....    DCD    1545
        0x000014b8:    00000000    ....    DCD    0
        0x000014bc:    00000004    ....    DCD    4
        0x000014c0:    00000400    ....    DCD    1024
        0x000014c4:    00000000    ....    DCD    0
        0x000014c8:    00000400    ....    DCD    1024
        0x000014cc:    00040400    ....    DCD    263168
        0x000014d0:    08100000    ....    DCD    135266304
        0x000014d4:    04020204    ....    DCD    67240452
        0x000014d8:    00001008    ....    DCD    4104
        0x000014dc:    00000000    ....    DCD    0
        0x000014e0:    003f003f    ?.?.    DCD    4128831
        0x000014e4:    00000000    ....    DCD    0
        0x000014e8:    04020000    ....    DCD    67239936
        0x000014ec:    08101008    ....    DCD    135270408
        0x000014f0:    00000204    ....    DCD    516
        0x000014f4:    110e0000    ....    DCD    286130176
        0x000014f8:    04040811    ....    DCD    67373073
        0x000014fc:    00000400    ....    DCD    1024
        0x00001500:    221c0000    ..."    DCD    572260352
        0x00001504:    1d2d2d29    )--.    DCD    489499945
        0x00001508:    00001c22    "...    DCD    7202
        0x0000150c:    04040000    ....    DCD    67371008
        0x00001510:    1e0a0a0c    ....    DCD    503974412
        0x00001514:    00003312    .3..    DCD    13074
        0x00001518:    120f0000    ....    DCD    302972928
        0x0000151c:    12120e12    ....    DCD    303173138
        0x00001520:    00000f12    ....    DCD    3858
        0x00001524:    111e0000    ....    DCD    287178752
        0x00001528:    01010101    ....    DCD    16843009
        0x0000152c:    00000e11    ....    DCD    3601
        0x00001530:    120f0000    ....    DCD    302972928
        0x00001534:    12121212    ....    DCD    303174162
        0x00001538:    00000f12    ....    DCD    3858
        0x0000153c:    121f0000    ....    DCD    304021504
        0x00001540:    020a0e0a    ....    DCD    34213386
        0x00001544:    00001f12    ....    DCD    7954
        0x00001548:    121f0000    ....    DCD    304021504
        0x0000154c:    020a0e0a    ....    DCD    34213386
        0x00001550:    00000702    ....    DCD    1794
        0x00001554:    121c0000    ....    DCD    303824896
        0x00001558:    11390101    ..9.    DCD    288948481
        0x0000155c:    00000c12    ....    DCD    3090
        0x00001560:    12330000    ..3.    DCD    305332224
        0x00001564:    12121e12    ....    DCD    303177234
        0x00001568:    00003312    .3..    DCD    13074
        0x0000156c:    041f0000    ....    DCD    69140480
        0x00001570:    04040404    ....    DCD    67372036
        0x00001574:    00001f04    ....    DCD    7940
        0x00001578:    083e0000    ..>.    DCD    138280960
        0x0000157c:    08080808    ....    DCD    134744072
        0x00001580:    07090808    ....    DCD    118032392
        0x00001584:    12370000    ..7.    DCD    305594368
        0x00001588:    120a060a    ....    DCD    302646794
        0x0000158c:    00003712    .7..    DCD    14098
        0x00001590:    02070000    ....    DCD    34013184
        0x00001594:    02020202    ....    DCD    33686018
        0x00001598:    00003f22    "?..    DCD    16162
        0x0000159c:    1b3b0000    ..;.    DCD    456851456
        0x000015a0:    15151b1b    ....    DCD    353704731
        0x000015a4:    00003515    .5..    DCD    13589
        0x000015a8:    123b0000    ..;.    DCD    305856512
        0x000015ac:    1a1a1616    ....    DCD    437917206
        0x000015b0:    00001712    ....    DCD    5906
        0x000015b4:    110e0000    ....    DCD    286130176
        0x000015b8:    11111111    ....    DCD    286331153
        0x000015bc:    00000e11    ....    DCD    3601
        0x000015c0:    120f0000    ....    DCD    302972928
        0x000015c4:    02020e12    ....    DCD    33689106
        0x000015c8:    00000702    ....    DCD    1794
        0x000015cc:    110e0000    ....    DCD    286130176
        0x000015d0:    17111111    ....    DCD    386994449
        0x000015d4:    00180e19    ....    DCD    1576473
        0x000015d8:    120f0000    ....    DCD    302972928
        0x000015dc:    120a0e12    ....    DCD    302648850
        0x000015e0:    00003712    .7..    DCD    14098
        0x000015e4:    111e0000    ....    DCD    287178752
        0x000015e8:    10080601    ....    DCD    268961281
        0x000015ec:    00000f11    ....    DCD    3857
        0x000015f0:    151f0000    ....    DCD    354353152
        0x000015f4:    04040404    ....    DCD    67372036
        0x000015f8:    00000e04    ....    DCD    3588
        0x000015fc:    12330000    ..3.    DCD    305332224
        0x00001600:    12121212    ....    DCD    303174162
        0x00001604:    00000c12    ....    DCD    3090
        0x00001608:    12330000    ..3.    DCD    305332224
        0x0000160c:    0c0a0a12    ....    DCD    201984530
        0x00001610:    00000404    ....    DCD    1028
        0x00001614:    15150000    ....    DCD    353697792
        0x00001618:    0a0e1515    ....    DCD    168695061
        0x0000161c:    00000a0a    ....    DCD    2570
        0x00001620:    0a1b0000    ....    DCD    169541632
        0x00001624:    0a04040a    ....    DCD    168035338
        0x00001628:    00001b0a    ....    DCD    6922
        0x0000162c:    0a1b0000    ....    DCD    169541632
        0x00001630:    04040a0a    ....    DCD    67373578
        0x00001634:    00000e04    ....    DCD    3588
        0x00001638:    091f0000    ....    DCD    153026560
        0x0000163c:    02040408    ....    DCD    33817608
        0x00001640:    00001f12    ....    DCD    7954
        0x00001644:    0404041c    ....    DCD    67372060
        0x00001648:    04040404    ....    DCD    67372036
        0x0000164c:    001c0404    ....    DCD    1836036
        0x00001650:    04020200    ....    DCD    67240448
        0x00001654:    08080404    ....    DCD    134743044
        0x00001658:    00101008    ....    DCD    1052680
        0x0000165c:    0808080e    ....    DCD    134744078
        0x00001660:    08080808    ....    DCD    134744072
        0x00001664:    000e0808    ....    DCD    919560
        0x00001668:    00000a04    ....    DCD    2564
        0x0000166c:    00000000    ....    DCD    0
        0x00001670:    00000000    ....    DCD    0
        0x00001674:    00000000    ....    DCD    0
        0x00001678:    00000000    ....    DCD    0
        0x0000167c:    3f000000    ...?    DCD    1056964608
        0x00001680:    00000402    ....    DCD    1026
        0x00001684:    00000000    ....    DCD    0
        0x00001688:    00000000    ....    DCD    0
        0x0000168c:    00000000    ....    DCD    0
        0x00001690:    1c120c00    ....    DCD    470944768
        0x00001694:    00003c12    .<..    DCD    15378
        0x00001698:    02020300    ....    DCD    33686272
        0x0000169c:    12120e02    ....    DCD    303173122
        0x000016a0:    00000e12    ....    DCD    3602
        0x000016a4:    00000000    ....    DCD    0
        0x000016a8:    02121c00    ....    DCD    34741248
        0x000016ac:    00000c12    ....    DCD    3090
        0x000016b0:    10101800    ....    DCD    269490176
        0x000016b4:    12121c10    ....    DCD    303176720
        0x000016b8:    00003c12    .<..    DCD    15378
        0x000016bc:    00000000    ....    DCD    0
        0x000016c0:    1e120c00    ....    DCD    504499200
        0x000016c4:    00001c02    ....    DCD    7170
        0x000016c8:    04241800    ..$.    DCD    69474304
        0x000016cc:    04041e04    ....    DCD    67378692
        0x000016d0:    00001e04    ....    DCD    7684
        0x000016d4:    00000000    ....    DCD    0
        0x000016d8:    0c123c00    .<..    DCD    202521600
        0x000016dc:    1c221c02    ..".    DCD    471997442
        0x000016e0:    02020300    ....    DCD    33686272
        0x000016e4:    12120e02    ....    DCD    303173122
        0x000016e8:    00003712    .7..    DCD    14098
        0x000016ec:    00040400    ....    DCD    263168
        0x000016f0:    04040600    ....    DCD    67372544
        0x000016f4:    00000e04    ....    DCD    3588
        0x000016f8:    00080800    ....    DCD    526336
        0x000016fc:    08080c00    ....    DCD    134745088
        0x00001700:    07080808    ....    DCD    117966856
        0x00001704:    02020300    ....    DCD    33686272
        0x00001708:    060a1a02    ....    DCD    101325314
        0x0000170c:    0000130a    ....    DCD    4874
        0x00001710:    04040700    ....    DCD    67372800
        0x00001714:    04040404    ....    DCD    67372036
        0x00001718:    00001f04    ....    DCD    7940
        0x0000171c:    00000000    ....    DCD    0
        0x00001720:    15150f00    ....    DCD    353701632
        0x00001724:    00001515    ....    DCD    5397
        0x00001728:    00000000    ....    DCD    0
        0x0000172c:    12120f00    ....    DCD    303173376
        0x00001730:    00003712    .7..    DCD    14098
        0x00001734:    00000000    ....    DCD    0
        0x00001738:    12120c00    ....    DCD    303172608
        0x0000173c:    00000c12    ....    DCD    3090
        0x00001740:    00000000    ....    DCD    0
        0x00001744:    12120f00    ....    DCD    303173376
        0x00001748:    07020e12    ....    DCD    117575186
        0x0000174c:    00000000    ....    DCD    0
        0x00001750:    12121c00    ....    DCD    303176704
        0x00001754:    38101c12    ...8    DCD    940579858
        0x00001758:    00000000    ....    DCD    0
        0x0000175c:    02061b00    ....    DCD    33954560
        0x00001760:    00000702    ....    DCD    1794
        0x00001764:    00000000    ....    DCD    0
        0x00001768:    0c021e00    ....    DCD    201465344
        0x0000176c:    00001e10    ....    DCD    7696
        0x00001770:    04000000    ....    DCD    67108864
        0x00001774:    04041e04    ....    DCD    67378692
        0x00001778:    00001c04    ....    DCD    7172
        0x0000177c:    00000000    ....    DCD    0
        0x00001780:    12121b00    ....    DCD    303176448
        0x00001784:    00003c12    .<..    DCD    15378
        0x00001788:    00000000    ....    DCD    0
        0x0000178c:    0a0a1b00    ....    DCD    168434432
        0x00001790:    00000404    ....    DCD    1028
        0x00001794:    00000000    ....    DCD    0
        0x00001798:    0e151500    ....    DCD    236262656
        0x0000179c:    00000a0a    ....    DCD    2570
        0x000017a0:    00000000    ....    DCD    0
        0x000017a4:    040a1b00    ....    DCD    67771136
        0x000017a8:    00001b0a    ....    DCD    6922
        0x000017ac:    00000000    ....    DCD    0
        0x000017b0:    12123300    .3..    DCD    303182592
        0x000017b4:    0304080c    ....    DCD    50595852
        0x000017b8:    00000000    ....    DCD    0
        0x000017bc:    04081e00    ....    DCD    67640832
        0x000017c0:    00001e04    ....    DCD    7684
        0x000017c4:    08080818    ....    DCD    134744088
        0x000017c8:    08080c08    ....    DCD    134745096
        0x000017cc:    00180808    ....    DCD    1574920
        0x000017d0:    08080808    ....    DCD    134744072
        0x000017d4:    08080808    ....    DCD    134744072
        0x000017d8:    08080808    ....    DCD    134744072
        0x000017dc:    04040406    ....    DCD    67372038
        0x000017e0:    04040804    ....    DCD    67373060
        0x000017e4:    00060404    ....    DCD    394244
        0x000017e8:    00000916    ....    DCD    2326
        0x000017ec:    00000000    ....    DCD    0
        0x000017f0:    00000000    ....    DCD    0
    ascii_2412
        0x000017f4:    00000000    ....    DCD    0
        0x000017f8:    00000000    ....    DCD    0
        0x000017fc:    00000000    ....    DCD    0
        0x00001800:    00000000    ....    DCD    0
        0x00001804:    00000000    ....    DCD    0
        0x00001808:    00000000    ....    DCD    0
        0x0000180c:    00000000    ....    DCD    0
        0x00001810:    00000000    ....    DCD    0
        0x00001814:    00000000    ....    DCD    0
        0x00001818:    00000000    ....    DCD    0
        0x0000181c:    00000000    ....    DCD    0
        0x00001820:    00000000    ....    DCD    0
        0x00001824:    00000000    ....    DCD    0
        0x00001828:    00000000    ....    DCD    0
        0x0000182c:    00600060    `.`.    DCD    6291552
        0x00001830:    00600060    `.`.    DCD    6291552
        0x00001834:    00600060    `.`.    DCD    6291552
        0x00001838:    00400060    `.@.    DCD    4194400
        0x0000183c:    00200020     . .    DCD    2097184
        0x00001840:    00000020     ...    DCD    32
        0x00001844:    00000000    ....    DCD    0
        0x00001848:    00600060    `.`.    DCD    6291552
        0x0000184c:    00000060    `...    DCD    96
        0x00001850:    00000000    ....    DCD    0
        0x00001854:    00000000    ....    DCD    0
        0x00001858:    06600660    `.`.    DCD    106956384
        0x0000185c:    01980330    0...    DCD    26739504
        0x00001860:    00440088    ..D.    DCD    4456584
        0x00001864:    00000000    ....    DCD    0
        0x00001868:    00000000    ....    DCD    0
        0x0000186c:    00000000    ....    DCD    0
        0x00001870:    00000000    ....    DCD    0
        0x00001874:    00000000    ....    DCD    0
        0x00001878:    00000000    ....    DCD    0
        0x0000187c:    00000000    ....    DCD    0
        0x00001880:    00000000    ....    DCD    0
        0x00001884:    00000000    ....    DCD    0
        0x00001888:    00000000    ....    DCD    0
        0x0000188c:    02100210    ....    DCD    34603536
        0x00001890:    02100210    ....    DCD    34603536
        0x00001894:    07fe07fe    ....    DCD    134088702
        0x00001898:    01080208    ....    DCD    17302024
        0x0000189c:    01080108    ....    DCD    17301768
        0x000018a0:    07fe0108    ....    DCD    134086920
        0x000018a4:    010407fe    ....    DCD    17041406
        0x000018a8:    01040104    ....    DCD    17039620
        0x000018ac:    00000104    ....    DCD    260
        0x000018b0:    00000000    ....    DCD    0
        0x000018b4:    00000000    ....    DCD    0
        0x000018b8:    00400000    ..@.    DCD    4194304
        0x000018bc:    01f00040    @...    DCD    32505920
        0x000018c0:    034c0358    X.L.    DCD    55313240
        0x000018c4:    004c03cc    ..L.    DCD    4981708
        0x000018c8:    00700058    X.p.    DCD    7340120
        0x000018cc:    01c000e0    ....    DCD    29360352
        0x000018d0:    034001c0    ..@.    DCD    54526400
        0x000018d4:    035c034c    L.\.    DCD    56361804
        0x000018d8:    0148034c    L.H.    DCD    21496652
        0x000018dc:    004000f0    ..@.    DCD    4194544
        0x000018e0:    00000040    @...    DCD    64
        0x000018e4:    00000000    ....    DCD    0
        0x000018e8:    00000000    ....    DCD    0
        0x000018ec:    010a010e    ....    DCD    17432846
        0x000018f0:    00910091    ....    DCD    9502865
        0x000018f4:    00510091    ..Q.    DCD    5308561
        0x000018f8:    003a0051    Q.:.    DCD    3801169
        0x000018fc:    02a003ae    ....    DCD    44041134
        0x00001900:    04500450    P.P.    DCD    72352848
        0x00001904:    04480448    H.H.    DCD    71828552
        0x00001908:    02840448    H...    DCD    42206280
        0x0000190c:    00000384    ....    DCD    900
        0x00001910:    00000000    ....    DCD    0
        0x00001914:    00000000    ....    DCD    0
        0x00001918:    00000000    ....    DCD    0
        0x0000191c:    006c0038    8.l.    DCD    7077944
        0x00001920:    006c006c    l.l.    DCD    7077996
        0x00001924:    006c006c    l.l.    DCD    7077996
        0x00001928:    0798002c    ,...    DCD    127402028
        0x0000192c:    011a011c    ....    DCD    18481436
        0x00001930:    01330133    3.3.    DCD    20119859
        0x00001934:    00e30163    c...    DCD    14877027
        0x00001938:    09c608c3    ....    DCD    163973315
        0x0000193c:    0000073c    <...    DCD    1852
        0x00001940:    00000000    ....    DCD    0
        0x00001944:    00000000    ....    DCD    0
        0x00001948:    001c000c    ....    DCD    1835020
        0x0000194c:    00100010    ....    DCD    1048592
        0x00001950:    00040008    ....    DCD    262152
        0x00001954:    00000000    ....    DCD    0
        0x00001958:    00000000    ....    DCD    0
        0x0000195c:    00000000    ....    DCD    0
        0x00001960:    00000000    ....    DCD    0
        0x00001964:    00000000    ....    DCD    0
        0x00001968:    00000000    ....    DCD    0
        0x0000196c:    00000000    ....    DCD    0
        0x00001970:    00000000    ....    DCD    0
        0x00001974:    00000000    ....    DCD    0
        0x00001978:    02000400    ....    DCD    33555456
        0x0000197c:    00800100    ....    DCD    8388864
        0x00001980:    00400080    ..@.    DCD    4194432
        0x00001984:    00200040    @. .    DCD    2097216
        0x00001988:    00200020     . .    DCD    2097184
        0x0000198c:    00200020     . .    DCD    2097184
        0x00001990:    00200020     . .    DCD    2097184
        0x00001994:    00400040    @.@.    DCD    4194368
        0x00001998:    00800080    ....    DCD    8388736
        0x0000199c:    02000100    ....    DCD    33554688
        0x000019a0:    00000400    ....    DCD    1024
        0x000019a4:    00000000    ....    DCD    0
        0x000019a8:    00040002    ....    DCD    262146
        0x000019ac:    00100008    ....    DCD    1048584
        0x000019b0:    00200010    .. .    DCD    2097168
        0x000019b4:    00400020     .@.    DCD    4194336
        0x000019b8:    00400040    @.@.    DCD    4194368
        0x000019bc:    00400040    @.@.    DCD    4194368
        0x000019c0:    00400040    @.@.    DCD    4194368
        0x000019c4:    00200020     . .    DCD    2097184
        0x000019c8:    00100010    ....    DCD    1048592
        0x000019cc:    00040008    ....    DCD    262152
        0x000019d0:    00000002    ....    DCD    2
        0x000019d4:    00000000    ....    DCD    0
        0x000019d8:    00000000    ....    DCD    0
        0x000019dc:    00000000    ....    DCD    0
        0x000019e0:    00c00040    @...    DCD    12582976
        0x000019e4:    0c460040    @.F.    DCD    205914176
        0x000019e8:    01d00f4e    N...    DCD    30412622
        0x000019ec:    0f5e01f0    ..^.    DCD    257819120
        0x000019f0:    00400c46    F.@.    DCD    4197446
        0x000019f4:    00400040    @.@.    DCD    4194368
        0x000019f8:    00000000    ....    DCD    0
        0x000019fc:    00000000    ....    DCD    0
        0x00001a00:    00000000    ....    DCD    0
        0x00001a04:    00000000    ....    DCD    0
        0x00001a08:    00000000    ....    DCD    0
        0x00001a0c:    00000000    ....    DCD    0
        0x00001a10:    00400000    ..@.    DCD    4194304
        0x00001a14:    00400040    @.@.    DCD    4194368
        0x00001a18:    00400040    @.@.    DCD    4194368
        0x00001a1c:    00400ffe    ..@.    DCD    4198398
        0x00001a20:    00400040    @.@.    DCD    4194368
        0x00001a24:    00400040    @.@.    DCD    4194368
        0x00001a28:    00000000    ....    DCD    0
        0x00001a2c:    00000000    ....    DCD    0
        0x00001a30:    00000000    ....    DCD    0
        0x00001a34:    00000000    ....    DCD    0
        0x00001a38:    00000000    ....    DCD    0
        0x00001a3c:    00000000    ....    DCD    0
        0x00001a40:    00000000    ....    DCD    0
        0x00001a44:    00000000    ....    DCD    0
        0x00001a48:    00000000    ....    DCD    0
        0x00001a4c:    00000000    ....    DCD    0
        0x00001a50:    00000000    ....    DCD    0
        0x00001a54:    00000000    ....    DCD    0
        0x00001a58:    001c000c    ....    DCD    1835020
        0x00001a5c:    00100010    ....    DCD    1048592
        0x00001a60:    00040008    ....    DCD    262152
        0x00001a64:    00000000    ....    DCD    0
        0x00001a68:    00000000    ....    DCD    0
        0x00001a6c:    00000000    ....    DCD    0
        0x00001a70:    00000000    ....    DCD    0
        0x00001a74:    00000000    ....    DCD    0
        0x00001a78:    00000000    ....    DCD    0
        0x00001a7c:    000007fe    ....    DCD    2046
        0x00001a80:    00000000    ....    DCD    0
        0x00001a84:    00000000    ....    DCD    0
        0x00001a88:    00000000    ....    DCD    0
        0x00001a8c:    00000000    ....    DCD    0
        0x00001a90:    00000000    ....    DCD    0
        0x00001a94:    00000000    ....    DCD    0
        0x00001a98:    00000000    ....    DCD    0
        0x00001a9c:    00000000    ....    DCD    0
        0x00001aa0:    00000000    ....    DCD    0
        0x00001aa4:    00000000    ....    DCD    0
        0x00001aa8:    00000000    ....    DCD    0
        0x00001aac:    00000000    ....    DCD    0
        0x00001ab0:    00000000    ....    DCD    0
        0x00001ab4:    00000000    ....    DCD    0
        0x00001ab8:    001c001c    ....    DCD    1835036
        0x00001abc:    0000001c    ....    DCD    28
        0x00001ac0:    00000000    ....    DCD    0
        0x00001ac4:    00000000    ....    DCD    0
        0x00001ac8:    06000400    ....    DCD    100664320
        0x00001acc:    03000200    ....    DCD    50332160
        0x00001ad0:    01000100    ....    DCD    16777472
        0x00001ad4:    00800080    ....    DCD    8388736
        0x00001ad8:    00400040    @.@.    DCD    4194368
        0x00001adc:    00200060    `. .    DCD    2097248
        0x00001ae0:    00100020     ...    DCD    1048608
        0x00001ae4:    00080010    ....    DCD    524304
        0x00001ae8:    000c0008    ....    DCD    786440
        0x00001aec:    00060004    ....    DCD    393220
        0x00001af0:    00000002    ....    DCD    2
        0x00001af4:    00000000    ....    DCD    0
        0x00001af8:    00000000    ....    DCD    0
        0x00001afc:    00f00000    ....    DCD    15728640
        0x00001b00:    030c0198    ....    DCD    51118488
        0x00001b04:    0606030c    ....    DCD    101057292
        0x00001b08:    06060606    ....    DCD    101058054
        0x00001b0c:    06060606    ....    DCD    101058054
        0x00001b10:    06060606    ....    DCD    101058054
        0x00001b14:    030c0606    ....    DCD    51119622
        0x00001b18:    0198030c    ....    DCD    26739468
        0x00001b1c:    000000f0    ....    DCD    240
        0x00001b20:    00000000    ....    DCD    0
        0x00001b24:    00000000    ....    DCD    0
        0x00001b28:    00000000    ....    DCD    0
        0x00001b2c:    00400000    ..@.    DCD    4194304
        0x00001b30:    0060007c    |.`.    DCD    6291580
        0x00001b34:    00600060    `.`.    DCD    6291552
        0x00001b38:    00600060    `.`.    DCD    6291552
        0x00001b3c:    00600060    `.`.    DCD    6291552
        0x00001b40:    00600060    `.`.    DCD    6291552
        0x00001b44:    00600060    `.`.    DCD    6291552
        0x00001b48:    00600060    `.`.    DCD    6291552
        0x00001b4c:    000003fc    ....    DCD    1020
        0x00001b50:    00000000    ....    DCD    0
        0x00001b54:    00000000    ....    DCD    0
        0x00001b58:    00000000    ....    DCD    0
        0x00001b5c:    00f80000    ....    DCD    16252928
        0x00001b60:    03020184    ....    DCD    50463108
        0x00001b64:    03060306    ....    DCD    50725638
        0x00001b68:    01000300    ....    DCD    16777984
        0x00001b6c:    00c00180    ....    DCD    12583296
        0x00001b70:    00200060    `. .    DCD    2097248
        0x00001b74:    02080010    ....    DCD    34078736
        0x00001b78:    02060204    ....    DCD    33948164
        0x00001b7c:    000003fe    ....    DCD    1022
        0x00001b80:    00000000    ....    DCD    0
        0x00001b84:    00000000    ....    DCD    0
        0x00001b88:    00000000    ....    DCD    0
        0x00001b8c:    00780000    ..x.    DCD    7864320
        0x00001b90:    018600c6    ....    DCD    25559238
        0x00001b94:    01800186    ....    DCD    25166214
        0x00001b98:    00c00180    ....    DCD    12583296
        0x00001b9c:    01800070    p...    DCD    25165936
        0x00001ba0:    03000100    ....    DCD    50331904
        0x00001ba4:    03060300    ....    DCD    50725632
        0x00001ba8:    01860306    ....    DCD    25559814
        0x00001bac:    000000f8    ....    DCD    248
        0x00001bb0:    00000000    ....    DCD    0
        0x00001bb4:    00000000    ....    DCD    0
        0x00001bb8:    00000000    ....    DCD    0
        0x00001bbc:    01800000    ....    DCD    25165824
        0x00001bc0:    01c00180    ....    DCD    29360512
        0x00001bc4:    01a001a0    ....    DCD    27263392
        0x00001bc8:    01880190    ....    DCD    25690512
        0x00001bcc:    01840188    ....    DCD    25428360
        0x00001bd0:    0ffe0182    ....    DCD    268304770
        0x00001bd4:    01800180    ....    DCD    25166208
        0x00001bd8:    01800180    ....    DCD    25166208
        0x00001bdc:    000007e0    ....    DCD    2016
        0x00001be0:    00000000    ....    DCD    0
        0x00001be4:    00000000    ....    DCD    0
        0x00001be8:    00000000    ....    DCD    0
        0x00001bec:    03fc0000    ....    DCD    66846720
        0x00001bf0:    00040004    ....    DCD    262148
        0x00001bf4:    00040004    ....    DCD    262148
        0x00001bf8:    00f40004    ....    DCD    15990788
        0x00001bfc:    0304018c    ....    DCD    50594188
        0x00001c00:    03000300    ....    DCD    50332416
        0x00001c04:    03060306    ....    DCD    50725638
        0x00001c08:    01840182    ....    DCD    25428354
        0x00001c0c:    000000f8    ....    DCD    248
        0x00001c10:    00000000    ....    DCD    0
        0x00001c14:    00000000    ....    DCD    0
        0x00001c18:    00000000    ....    DCD    0
        0x00001c1c:    01e00000    ....    DCD    31457280
        0x00001c20:    030c0318    ....    DCD    51118872
        0x00001c24:    0004000c    ....    DCD    262156
        0x00001c28:    01e60006    ....    DCD    31850502
        0x00001c2c:    060e0316    ....    DCD    101581590
        0x00001c30:    06060606    ....    DCD    101058054
        0x00001c34:    06040606    ....    DCD    100926982
        0x00001c38:    0318020c    ....    DCD    51905036
        0x00001c3c:    000000f0    ....    DCD    240
        0x00001c40:    00000000    ....    DCD    0
        0x00001c44:    00000000    ....    DCD    0
        0x00001c48:    00000000    ....    DCD    0
        0x00001c4c:    07f80000    ....    DCD    133693440
        0x00001c50:    0204060c    ....    DCD    33818124
        0x00001c54:    01000104    ....    DCD    16777476
        0x00001c58:    00800100    ....    DCD    8388864
        0x00001c5c:    00400080    ..@.    DCD    4194432
        0x00001c60:    00400040    @.@.    DCD    4194368
        0x00001c64:    00600060    `.`.    DCD    6291552
        0x00001c68:    00600060    `.`.    DCD    6291552
        0x00001c6c:    00000060    `...    DCD    96
        0x00001c70:    00000000    ....    DCD    0
        0x00001c74:    00000000    ....    DCD    0
        0x00001c78:    00000000    ....    DCD    0
        0x00001c7c:    01f80000    ....    DCD    33030144
        0x00001c80:    0606030c    ....    DCD    101057292
        0x00001c84:    06060606    ....    DCD    101058054
        0x00001c88:    031c020c    ....    DCD    52167180
        0x00001c8c:    01c800f0    ....    DCD    29884656
        0x00001c90:    0606030c    ....    DCD    101057292
        0x00001c94:    06060606    ....    DCD    101058054
        0x00001c98:    030c0606    ....    DCD    51119622
        0x00001c9c:    000001f0    ....    DCD    496
        0x00001ca0:    00000000    ....    DCD    0
        0x00001ca4:    00000000    ....    DCD    0
        0x00001ca8:    00000000    ....    DCD    0
        0x00001cac:    00f00000    ....    DCD    15728640
        0x00001cb0:    030c010c    ....    DCD    51118348
        0x00001cb4:    06060206    ....    DCD    101057030
        0x00001cb8:    06060606    ....    DCD    101058054
        0x00001cbc:    068c0706    ....    DCD    109840134
        0x00001cc0:    06000678    x...    DCD    100664952
        0x00001cc4:    03000300    ....    DCD    50332416
        0x00001cc8:    018c010c    ....    DCD    25952524
        0x00001ccc:    00000078    x...    DCD    120
        0x00001cd0:    00000000    ....    DCD    0
        0x00001cd4:    00000000    ....    DCD    0
        0x00001cd8:    00000000    ....    DCD    0
        0x00001cdc:    00000000    ....    DCD    0
        0x00001ce0:    00000000    ....    DCD    0
        0x00001ce4:    00000000    ....    DCD    0
        0x00001ce8:    00e000e0    ....    DCD    14680288
        0x00001cec:    000000e0    ....    DCD    224
        0x00001cf0:    00000000    ....    DCD    0
        0x00001cf4:    00000000    ....    DCD    0
        0x00001cf8:    00e000e0    ....    DCD    14680288
        0x00001cfc:    000000e0    ....    DCD    224
        0x00001d00:    00000000    ....    DCD    0
        0x00001d04:    00000000    ....    DCD    0
        0x00001d08:    00000000    ....    DCD    0
        0x00001d0c:    00000000    ....    DCD    0
        0x00001d10:    00000000    ....    DCD    0
        0x00001d14:    00000000    ....    DCD    0
        0x00001d18:    00600060    `.`.    DCD    6291552
        0x00001d1c:    00000000    ....    DCD    0
        0x00001d20:    00000000    ....    DCD    0
        0x00001d24:    00000000    ....    DCD    0
        0x00001d28:    00600000    ..`.    DCD    6291456
        0x00001d2c:    00400060    `.@.    DCD    4194400
        0x00001d30:    00200020     . .    DCD    2097184
        0x00001d34:    00000000    ....    DCD    0
        0x00001d38:    00000000    ....    DCD    0
        0x00001d3c:    02000400    ....    DCD    33555456
        0x00001d40:    00800100    ....    DCD    8388864
        0x00001d44:    00200040    @. .    DCD    2097216
        0x00001d48:    00080010    ....    DCD    524304
        0x00001d4c:    00080004    ....    DCD    524292
        0x00001d50:    00200010    .. .    DCD    2097168
        0x00001d54:    00800040    @...    DCD    8388672
        0x00001d58:    02000100    ....    DCD    33554688
        0x00001d5c:    00000400    ....    DCD    1024
        0x00001d60:    00000000    ....    DCD    0
        0x00001d64:    00000000    ....    DCD    0
        0x00001d68:    00000000    ....    DCD    0
        0x00001d6c:    00000000    ....    DCD    0
        0x00001d70:    00000000    ....    DCD    0
        0x00001d74:    00000000    ....    DCD    0
        0x00001d78:    000007fe    ....    DCD    2046
        0x00001d7c:    00000000    ....    DCD    0
        0x00001d80:    000007fe    ....    DCD    2046
        0x00001d84:    00000000    ....    DCD    0
        0x00001d88:    00000000    ....    DCD    0
        0x00001d8c:    00000000    ....    DCD    0
        0x00001d90:    00000000    ....    DCD    0
        0x00001d94:    00000000    ....    DCD    0
        0x00001d98:    00000000    ....    DCD    0
        0x00001d9c:    00080004    ....    DCD    524292
        0x00001da0:    00200010    .. .    DCD    2097168
        0x00001da4:    00800040    @...    DCD    8388672
        0x00001da8:    02000100    ....    DCD    33554688
        0x00001dac:    02000400    ....    DCD    33555456
        0x00001db0:    00800100    ....    DCD    8388864
        0x00001db4:    00200040    @. .    DCD    2097216
        0x00001db8:    00080010    ....    DCD    524304
        0x00001dbc:    00000004    ....    DCD    4
        0x00001dc0:    00000000    ....    DCD    0
        0x00001dc4:    00000000    ....    DCD    0
        0x00001dc8:    00000000    ....    DCD    0
        0x00001dcc:    03e00000    ....    DCD    65011712
        0x00001dd0:    0c040618    ....    DCD    201590296
        0x00001dd4:    0c0c0c04    ....    DCD    202116100
        0x00001dd8:    07000c0c    ....    DCD    117443596
        0x00001ddc:    00400180    ..@.    DCD    4194688
        0x00001de0:    00400040    @.@.    DCD    4194368
        0x00001de4:    00000000    ....    DCD    0
        0x00001de8:    00e000e0    ....    DCD    14680288
        0x00001dec:    000000e0    ....    DCD    224
        0x00001df0:    00000000    ....    DCD    0
        0x00001df4:    00000000    ....    DCD    0
        0x00001df8:    00000000    ....    DCD    0
        0x00001dfc:    031800e0    ....    DCD    51904736
        0x00001e00:    05cc020c    ....    DCD    97255948
        0x00001e04:    05660564    d.f.    DCD    90572132
        0x00001e08:    04b605a6    ....    DCD    79037862
        0x00001e0c:    04b604b6    ....    DCD    79037622
        0x00001e10:    02b604b6    ....    DCD    45483190
        0x00001e14:    040c01e4    ....    DCD    67895780
        0x00001e18:    0318020c    ....    DCD    51905036
        0x00001e1c:    000000f0    ....    DCD    240
        0x00001e20:    00000000    ....    DCD    0
        0x00001e24:    00000000    ....    DCD    0
        0x00001e28:    00000000    ....    DCD    0
        0x00001e2c:    00600000    ..`.    DCD    6291456
        0x00001e30:    00500060    `.P.    DCD    5242976
        0x00001e34:    009000d0    ....    DCD    9437392
        0x00001e38:    00880090    ....    DCD    8913040
        0x00001e3c:    01080188    ....    DCD    17301896
        0x00001e40:    030401f8    ....    DCD    50594296
        0x00001e44:    02040304    ....    DCD    33817348
        0x00001e48:    06020202    ....    DCD    100794882
        0x00001e4c:    00000f0f    ....    DCD    3855
        0x00001e50:    00000000    ....    DCD    0
        0x00001e54:    00000000    ....    DCD    0
        0x00001e58:    00000000    ....    DCD    0
        0x00001e5c:    00fe0000    ....    DCD    16646144
        0x00001e60:    030c038c    ....    DCD    51118988
        0x00001e64:    030c030c    ....    DCD    51118860
        0x00001e68:    018c030c    ....    DCD    25953036
        0x00001e6c:    030c00fc    ....    DCD    51118332
        0x00001e70:    060c020c    ....    DCD    101450252
        0x00001e74:    060c060c    ....    DCD    101451276
        0x00001e78:    030c060c    ....    DCD    51119628
        0x00001e7c:    000001fe    ....    DCD    510
        0x00001e80:    00000000    ....    DCD    0
        0x00001e84:    00000000    ....    DCD    0
        0x00001e88:    00000000    ....    DCD    0
        0x00001e8c:    03e00000    ....    DCD    65011712
        0x00001e90:    060c0318    ....    DCD    101450520
        0x00001e94:    0404040c    ....    DCD    67372044
        0x00001e98:    00060006    ....    DCD    393222
        0x00001e9c:    00060006    ....    DCD    393222
        0x00001ea0:    00060006    ....    DCD    393222
        0x00001ea4:    040c0406    ....    DCD    67896326
        0x00001ea8:    0318020c    ....    DCD    51905036
        0x00001eac:    000000f0    ....    DCD    240
        0x00001eb0:    00000000    ....    DCD    0
        0x00001eb4:    00000000    ....    DCD    0
        0x00001eb8:    00000000    ....    DCD    0
        0x00001ebc:    007f0000    ....    DCD    8323072
        0x00001ec0:    030c018c    ....    DCD    51118476
        0x00001ec4:    060c030c    ....    DCD    101450508
        0x00001ec8:    060c060c    ....    DCD    101451276
        0x00001ecc:    060c060c    ....    DCD    101451276
        0x00001ed0:    060c060c    ....    DCD    101451276
        0x00001ed4:    030c060c    ....    DCD    51119628
        0x00001ed8:    018c030c    ....    DCD    25953036
        0x00001edc:    0000007f    ....    DCD    127
        0x00001ee0:    00000000    ....    DCD    0
        0x00001ee4:    00000000    ....    DCD    0
        0x00001ee8:    00000000    ....    DCD    0
        0x00001eec:    03ff0000    ....    DCD    67043328
        0x00001ef0:    04060306    ....    DCD    67502854
        0x00001ef4:    00060406    ....    DCD    394246
        0x00001ef8:    00860086    ....    DCD    8781958
        0x00001efc:    008600fe    ....    DCD    8782078
        0x00001f00:    00860086    ....    DCD    8781958
        0x00001f04:    04060006    ....    DCD    67502086
        0x00001f08:    02060406    ....    DCD    33948678
        0x00001f0c:    000003ff    ....    DCD    1023
        0x00001f10:    00000000    ....    DCD    0
        0x00001f14:    00000000    ....    DCD    0
        0x00001f18:    00000000    ....    DCD    0
        0x00001f1c:    03ff0000    ....    DCD    67043328
        0x00001f20:    04060306    ....    DCD    67502854
        0x00001f24:    00060406    ....    DCD    394246
        0x00001f28:    00860086    ....    DCD    8781958
        0x00001f2c:    008600fe    ....    DCD    8782078
        0x00001f30:    00860086    ....    DCD    8781958
        0x00001f34:    00060006    ....    DCD    393222
        0x00001f38:    00060006    ....    DCD    393222
        0x00001f3c:    0000001f    ....    DCD    31
        0x00001f40:    00000000    ....    DCD    0
        0x00001f44:    00000000    ....    DCD    0
        0x00001f48:    00000000    ....    DCD    0
        0x00001f4c:    00f00000    ....    DCD    15728640
        0x00001f50:    020c0118    ....    DCD    34341144
        0x00001f54:    0204020c    ....    DCD    33817100
        0x00001f58:    00060006    ....    DCD    393222
        0x00001f5c:    00060006    ....    DCD    393222
        0x00001f60:    03060fc6    ....    DCD    50728902
        0x00001f64:    030c0306    ....    DCD    51118854
        0x00001f68:    0318030c    ....    DCD    51905292
        0x00001f6c:    000000f0    ....    DCD    240
        0x00001f70:    00000000    ....    DCD    0
        0x00001f74:    00000000    ....    DCD    0
        0x00001f78:    00000000    ....    DCD    0
        0x00001f7c:    0f0f0000    ....    DCD    252641280
        0x00001f80:    06060606    ....    DCD    101058054
        0x00001f84:    06060606    ....    DCD    101058054
        0x00001f88:    06060606    ....    DCD    101058054
        0x00001f8c:    060607fe    ....    DCD    101058558
        0x00001f90:    06060606    ....    DCD    101058054
        0x00001f94:    06060606    ....    DCD    101058054
        0x00001f98:    06060606    ....    DCD    101058054
        0x00001f9c:    00000f0f    ....    DCD    3855
        0x00001fa0:    00000000    ....    DCD    0
        0x00001fa4:    00000000    ....    DCD    0
        0x00001fa8:    00000000    ....    DCD    0
        0x00001fac:    03fc0000    ....    DCD    66846720
        0x00001fb0:    00600060    `.`.    DCD    6291552
        0x00001fb4:    00600060    `.`.    DCD    6291552
        0x00001fb8:    00600060    `.`.    DCD    6291552
        0x00001fbc:    00600060    `.`.    DCD    6291552
        0x00001fc0:    00600060    `.`.    DCD    6291552
        0x00001fc4:    00600060    `.`.    DCD    6291552
        0x00001fc8:    00600060    `.`.    DCD    6291552
        0x00001fcc:    000003fc    ....    DCD    1020
        0x00001fd0:    00000000    ....    DCD    0
        0x00001fd4:    00000000    ....    DCD    0
        0x00001fd8:    00000000    ....    DCD    0
        0x00001fdc:    07f80000    ....    DCD    133693440
        0x00001fe0:    00c000c0    ....    DCD    12583104
        0x00001fe4:    00c000c0    ....    DCD    12583104
        0x00001fe8:    00c000c0    ....    DCD    12583104
        0x00001fec:    00c000c0    ....    DCD    12583104
        0x00001ff0:    00c000c0    ....    DCD    12583104
        0x00001ff4:    00c000c0    ....    DCD    12583104
        0x00001ff8:    00c000c0    ....    DCD    12583104
        0x00001ffc:    00c600c0    ....    DCD    12976320
        0x00002000:    003c0066    f.<.    DCD    3932262
        0x00002004:    00000000    ....    DCD    0
        0x00002008:    00000000    ....    DCD    0
        0x0000200c:    03cf0000    ....    DCD    63897600
        0x00002010:    00c60186    ....    DCD    12976518
        0x00002014:    00260046    F.&.    DCD    2490438
        0x00002018:    00360016    ..6.    DCD    3538966
        0x0000201c:    006e002e    ..n.    DCD    7209006
        0x00002020:    00c60046    F...    DCD    12976198
        0x00002024:    01860086    ....    DCD    25559174
        0x00002028:    03060106    ....    DCD    50725126
        0x0000202c:    0000078f    ....    DCD    1935
        0x00002030:    00000000    ....    DCD    0
        0x00002034:    00000000    ....    DCD    0
        0x00002038:    00000000    ....    DCD    0
        0x0000203c:    001f0000    ....    DCD    2031616
        0x00002040:    00060006    ....    DCD    393222
        0x00002044:    00060006    ....    DCD    393222
        0x00002048:    00060006    ....    DCD    393222
        0x0000204c:    00060006    ....    DCD    393222
        0x00002050:    00060006    ....    DCD    393222
        0x00002054:    04060006    ....    DCD    67502086
        0x00002058:    02060406    ....    DCD    33948678
        0x0000205c:    000003ff    ....    DCD    1023
        0x00002060:    00000000    ....    DCD    0
        0x00002064:    00000000    ....    DCD    0
        0x00002068:    00000000    ....    DCD    0
        0x0000206c:    07070000    ....    DCD    117899264
        0x00002070:    03860386    ....    DCD    59114374
        0x00002074:    038e038e    ....    DCD    59638670
        0x00002078:    034e034e    N.N.    DCD    55444302
        0x0000207c:    035a034a    J.Z.    DCD    56230730
        0x00002080:    033a035a    Z.:.    DCD    54133594
        0x00002084:    03320332    2.2.    DCD    53609266
        0x00002088:    03120332    2...    DCD    51512114
        0x0000208c:    00000787    ....    DCD    1927
        0x00002090:    00000000    ....    DCD    0
        0x00002094:    00000000    ....    DCD    0
        0x00002098:    00000000    ....    DCD    0
        0x0000209c:    0f8e0000    ....    DCD    260964352
        0x000020a0:    021c020c    ....    DCD    35389964
        0x000020a4:    0234021c    ..4.    DCD    36962844
        0x000020a8:    02640234    4.d.    DCD    40108596
        0x000020ac:    02440264    d.D.    DCD    38011492
        0x000020b0:    028402c4    ....    DCD    42205892
        0x000020b4:    03840384    ....    DCD    58983300
        0x000020b8:    03040304    ....    DCD    50594564
        0x000020bc:    0000021f    ....    DCD    543
        0x000020c0:    00000000    ....    DCD    0
        0x000020c4:    00000000    ....    DCD    0
        0x000020c8:    00000000    ....    DCD    0
        0x000020cc:    00f00000    ....    DCD    15728640
        0x000020d0:    030c0198    ....    DCD    51118488
        0x000020d4:    0606020c    ....    DCD    101057036
        0x000020d8:    06060606    ....    DCD    101058054
        0x000020dc:    06060606    ....    DCD    101058054
        0x000020e0:    06060606    ....    DCD    101058054
        0x000020e4:    020c0606    ....    DCD    34342406
        0x000020e8:    0198030c    ....    DCD    26739468
        0x000020ec:    000000f0    ....    DCD    240
        0x000020f0:    00000000    ....    DCD    0
        0x000020f4:    00000000    ....    DCD    0
        0x000020f8:    00000000    ....    DCD    0
        0x000020fc:    00ff0000    ....    DCD    16711680
        0x00002100:    06060306    ....    DCD    101057286
        0x00002104:    06060606    ....    DCD    101058054
        0x00002108:    06060606    ....    DCD    101058054
        0x0000210c:    00fe0386    ....    DCD    16647046
        0x00002110:    00060006    ....    DCD    393222
        0x00002114:    00060006    ....    DCD    393222
        0x00002118:    00060006    ....    DCD    393222
        0x0000211c:    0000001f    ....    DCD    31
        0x00002120:    00000000    ....    DCD    0
        0x00002124:    00000000    ....    DCD    0
        0x00002128:    00000000    ....    DCD    0
        0x0000212c:    00f00000    ....    DCD    15728640
        0x00002130:    030c0198    ....    DCD    51118488
        0x00002134:    0606020c    ....    DCD    101057036
        0x00002138:    06060606    ....    DCD    101058054
        0x0000213c:    06060606    ....    DCD    101058054
        0x00002140:    06060606    ....    DCD    101058054
        0x00002144:    024c0676    v.L.    DCD    38536822
        0x00002148:    019803cc    ....    DCD    26739660
        0x0000214c:    078000f0    ....    DCD    125829360
        0x00002150:    00000300    ....    DCD    768
        0x00002154:    00000000    ....    DCD    0
        0x00002158:    00000000    ....    DCD    0
        0x0000215c:    01ff0000    ....    DCD    33488896
        0x00002160:    06060306    ....    DCD    101057286
        0x00002164:    06060606    ....    DCD    101058054
        0x00002168:    03060606    ....    DCD    50726406
        0x0000216c:    004600fe    ..F.    DCD    4587774
        0x00002170:    008600c6    ....    DCD    8782022
        0x00002174:    03060186    ....    DCD    50725254
        0x00002178:    06060306    ....    DCD    101057286
        0x0000217c:    00000e0f    ....    DCD    3599
        0x00002180:    00000000    ....    DCD    0
        0x00002184:    00000000    ....    DCD    0
        0x00002188:    00000000    ....    DCD    0
        0x0000218c:    02f80000    ....    DCD    49807360
        0x00002190:    0206030c    ....    DCD    33948428
        0x00002194:    00060206    ....    DCD    393734
        0x00002198:    003c000e    ..<.    DCD    3932174
        0x0000219c:    03e000f8    ....    DCD    65011960
        0x000021a0:    07000380    ....    DCD    117441408
        0x000021a4:    06020602    ....    DCD    100795906
        0x000021a8:    030c0606    ....    DCD    51119622
        0x000021ac:    000001f0    ....    DCD    496
        0x000021b0:    00000000    ....    DCD    0
        0x000021b4:    00000000    ....    DCD    0
        0x000021b8:    00000000    ....    DCD    0
        0x000021bc:    07fe0000    ....    DCD    134086656
        0x000021c0:    08610462    b.a.    DCD    140575842
        0x000021c4:    00600861    a.`.    DCD    6293601
        0x000021c8:    00600060    `.`.    DCD    6291552
        0x000021cc:    00600060    `.`.    DCD    6291552
        0x000021d0:    00600060    `.`.    DCD    6291552
        0x000021d4:    00600060    `.`.    DCD    6291552
        0x000021d8:    00600060    `.`.    DCD    6291552
        0x000021dc:    000001f8    ....    DCD    504
        0x000021e0:    00000000    ....    DCD    0
        0x000021e4:    00000000    ....    DCD    0
        0x000021e8:    00000000    ....    DCD    0
        0x000021ec:    071e0000    ....    DCD    119406592
        0x000021f0:    020c020c    ....    DCD    34341388
        0x000021f4:    020c020c    ....    DCD    34341388
        0x000021f8:    020c020c    ....    DCD    34341388
        0x000021fc:    020c020c    ....    DCD    34341388
        0x00002200:    020c020c    ....    DCD    34341388
        0x00002204:    020c020c    ....    DCD    34341388
        0x00002208:    0118020c    ....    DCD    18350604
        0x0000220c:    000000f0    ....    DCD    240
        0x00002210:    00000000    ....    DCD    0
        0x00002214:    00000000    ....    DCD    0
        0x00002218:    00000000    ....    DCD    0
        0x0000221c:    070f0000    ....    DCD    118423552
        0x00002220:    01040206    ....    DCD    17039878
        0x00002224:    010c0104    ....    DCD    17563908
        0x00002228:    0088010c    ....    DCD    8913164
        0x0000222c:    00980088    ....    DCD    9961608
        0x00002230:    00500098    ..P.    DCD    5243032
        0x00002234:    00700050    P.p.    DCD    7340112
        0x00002238:    00200030    0. .    DCD    2097200
        0x0000223c:    00000020     ...    DCD    32
        0x00002240:    00000000    ....    DCD    0
        0x00002244:    00000000    ....    DCD    0
        0x00002248:    00000000    ....    DCD    0
        0x0000224c:    0ef70000    ....    DCD    251068416
        0x00002250:    04420462    b.B.    DCD    71435362
        0x00002254:    04460446    F.F.    DCD    71697478
        0x00002258:    02640264    d.d.    DCD    40108644
        0x0000225c:    02e402e4    ....    DCD    48497380
        0x00002260:    019c029c    ....    DCD    27001500
        0x00002264:    01980198    ....    DCD    26739096
        0x00002268:    00880188    ....    DCD    8913288
        0x0000226c:    00000088    ....    DCD    136
        0x00002270:    00000000    ....    DCD    0
        0x00002274:    00000000    ....    DCD    0
        0x00002278:    00000000    ....    DCD    0
        0x0000227c:    079e0000    ....    DCD    127795200
        0x00002280:    0108010c    ....    DCD    17301772
        0x00002284:    00900118    ....    DCD    9437464
        0x00002288:    006000b0    ..`.    DCD    6291632
        0x0000228c:    00600020     .`.    DCD    6291488
        0x00002290:    00d00060    `...    DCD    13631584
        0x00002294:    01880090    ....    DCD    25690256
        0x00002298:    03040108    ....    DCD    50594056
        0x0000229c:    0000078e    ....    DCD    1934
        0x000022a0:    00000000    ....    DCD    0
        0x000022a4:    00000000    ....    DCD    0
        0x000022a8:    00000000    ....    DCD    0
        0x000022ac:    0f0f0000    ....    DCD    252641280
        0x000022b0:    02040406    ....    DCD    33817606
        0x000022b4:    0108020c    ....    DCD    17302028
        0x000022b8:    00b80118    ....    DCD    12058904
        0x000022bc:    007000b0    ..p.    DCD    7340208
        0x000022c0:    00600060    `.`.    DCD    6291552
        0x000022c4:    00600060    `.`.    DCD    6291552
        0x000022c8:    00600060    `.`.    DCD    6291552
        0x000022cc:    000001f8    ....    DCD    504
        0x000022d0:    00000000    ....    DCD    0
        0x000022d4:    00000000    ....    DCD    0
        0x000022d8:    00000000    ....    DCD    0
        0x000022dc:    07fc0000    ....    DCD    133955584
        0x000022e0:    0306020c    ....    DCD    50725388
        0x000022e4:    01800102    ....    DCD    25166082
        0x000022e8:    00400080    ..@.    DCD    4194432
        0x000022ec:    00200040    @. .    DCD    2097216
        0x000022f0:    00100020     ...    DCD    1048608
        0x000022f4:    04080018    ....    DCD    67633176
        0x000022f8:    0204040c    ....    DCD    33817612
        0x000022fc:    000003fe    ....    DCD    1022
        0x00002300:    00000000    ....    DCD    0
        0x00002304:    00000000    ....    DCD    0
        0x00002308:    002003e0    .. .    DCD    2098144
        0x0000230c:    00200020     . .    DCD    2097184
        0x00002310:    00200020     . .    DCD    2097184
        0x00002314:    00200020     . .    DCD    2097184
        0x00002318:    00200020     . .    DCD    2097184
        0x0000231c:    00200020     . .    DCD    2097184
        0x00002320:    00200020     . .    DCD    2097184
        0x00002324:    00200020     . .    DCD    2097184
        0x00002328:    00200020     . .    DCD    2097184
        0x0000232c:    00200020     . .    DCD    2097184
        0x00002330:    000003e0    ....    DCD    992
        0x00002334:    00000000    ....    DCD    0
        0x00002338:    00000000    ....    DCD    0
        0x0000233c:    00040004    ....    DCD    262148
        0x00002340:    00080008    ....    DCD    524296
        0x00002344:    00100010    ....    DCD    1048592
        0x00002348:    00200010    .. .    DCD    2097168
        0x0000234c:    00400020     .@.    DCD    4194336
        0x00002350:    00c00040    @...    DCD    12582976
        0x00002354:    00800080    ....    DCD    8388736
        0x00002358:    01000100    ....    DCD    16777472
        0x0000235c:    02000200    ....    DCD    33554944
        0x00002360:    04000200    ....    DCD    67109376
        0x00002364:    00000000    ....    DCD    0
        0x00002368:    0040007c    |.@.    DCD    4194428
        0x0000236c:    00400040    @.@.    DCD    4194368
        0x00002370:    00400040    @.@.    DCD    4194368
        0x00002374:    00400040    @.@.    DCD    4194368
        0x00002378:    00400040    @.@.    DCD    4194368
        0x0000237c:    00400040    @.@.    DCD    4194368
        0x00002380:    00400040    @.@.    DCD    4194368
        0x00002384:    00400040    @.@.    DCD    4194368
        0x00002388:    00400040    @.@.    DCD    4194368
        0x0000238c:    00400040    @.@.    DCD    4194368
        0x00002390:    0000007c    |...    DCD    124
        0x00002394:    00600000    ..`.    DCD    6291456
        0x00002398:    01080090    ....    DCD    17301648
        0x0000239c:    00000000    ....    DCD    0
        0x000023a0:    00000000    ....    DCD    0
        0x000023a4:    00000000    ....    DCD    0
        0x000023a8:    00000000    ....    DCD    0
        0x000023ac:    00000000    ....    DCD    0
        0x000023b0:    00000000    ....    DCD    0
        0x000023b4:    00000000    ....    DCD    0
        0x000023b8:    00000000    ....    DCD    0
        0x000023bc:    00000000    ....    DCD    0
        0x000023c0:    00000000    ....    DCD    0
        0x000023c4:    00000000    ....    DCD    0
        0x000023c8:    00000000    ....    DCD    0
        0x000023cc:    00000000    ....    DCD    0
        0x000023d0:    00000000    ....    DCD    0
        0x000023d4:    00000000    ....    DCD    0
        0x000023d8:    00000000    ....    DCD    0
        0x000023dc:    00000000    ....    DCD    0
        0x000023e0:    00000000    ....    DCD    0
        0x000023e4:    00000000    ....    DCD    0
        0x000023e8:    00000000    ....    DCD    0
        0x000023ec:    00000000    ....    DCD    0
        0x000023f0:    0fff0000    ....    DCD    268369920
        0x000023f4:    00000000    ....    DCD    0
        0x000023f8:    00600018    ..`.    DCD    6291480
        0x000023fc:    00000000    ....    DCD    0
        0x00002400:    00000000    ....    DCD    0
        0x00002404:    00000000    ....    DCD    0
        0x00002408:    00000000    ....    DCD    0
        0x0000240c:    00000000    ....    DCD    0
        0x00002410:    00000000    ....    DCD    0
        0x00002414:    00000000    ....    DCD    0
        0x00002418:    00000000    ....    DCD    0
        0x0000241c:    00000000    ....    DCD    0
        0x00002420:    00000000    ....    DCD    0
        0x00002424:    00000000    ....    DCD    0
        0x00002428:    00000000    ....    DCD    0
        0x0000242c:    00000000    ....    DCD    0
        0x00002430:    00000000    ....    DCD    0
        0x00002434:    00000000    ....    DCD    0
        0x00002438:    030c01f0    ....    DCD    51118576
        0x0000243c:    0300030c    ....    DCD    50332428
        0x00002440:    031c03e0    ....    DCD    52167648
        0x00002444:    0306030e    ....    DCD    50725646
        0x00002448:    0b8e0306    ....    DCD    193856262
        0x0000244c:    00000e7c    |...    DCD    3708
        0x00002450:    00000000    ....    DCD    0
        0x00002454:    00000000    ....    DCD    0
        0x00002458:    00000000    ....    DCD    0
        0x0000245c:    000e0008    ....    DCD    917512
        0x00002460:    000c000c    ....    DCD    786444
        0x00002464:    000c000c    ....    DCD    786444
        0x00002468:    033c01cc    ..<.    DCD    54264268
        0x0000246c:    060c061c    ....    DCD    101451292
        0x00002470:    060c060c    ....    DCD    101451276
        0x00002474:    060c060c    ....    DCD    101451276
        0x00002478:    031c020c    ....    DCD    52167180
        0x0000247c:    000001e4    ....    DCD    484
        0x00002480:    00000000    ....    DCD    0
        0x00002484:    00000000    ....    DCD    0
        0x00002488:    00000000    ....    DCD    0
        0x0000248c:    00000000    ....    DCD    0
        0x00002490:    00000000    ....    DCD    0
        0x00002494:    00000000    ....    DCD    0
        0x00002498:    018c00f0    ....    DCD    25952496
        0x0000249c:    0186018c    ....    DCD    25559436
        0x000024a0:    00060006    ....    DCD    393222
        0x000024a4:    02060006    ....    DCD    33947654
        0x000024a8:    010c020c    ....    DCD    17564172
        0x000024ac:    000000f0    ....    DCD    240
        0x000024b0:    00000000    ....    DCD    0
        0x000024b4:    00000000    ....    DCD    0
        0x000024b8:    00000000    ....    DCD    0
        0x000024bc:    03c00200    ....    DCD    62915072
        0x000024c0:    03000300    ....    DCD    50332416
        0x000024c4:    03000300    ....    DCD    50332416
        0x000024c8:    038c0378    x...    DCD    59507576
        0x000024cc:    0306030c    ....    DCD    50725644
        0x000024d0:    03060306    ....    DCD    50725638
        0x000024d4:    03060306    ....    DCD    50725638
        0x000024d8:    078c0304    ....    DCD    126616324
        0x000024dc:    00000178    x...    DCD    376
        0x000024e0:    00000000    ....    DCD    0
        0x000024e4:    00000000    ....    DCD    0
        0x000024e8:    00000000    ....    DCD    0
        0x000024ec:    00000000    ....    DCD    0
        0x000024f0:    00000000    ....    DCD    0
        0x000024f4:    00000000    ....    DCD    0
        0x000024f8:    031801e0    ....    DCD    51904992
        0x000024fc:    060c0208    ....    DCD    101450248
        0x00002500:    07fc060c    ....    DCD    133957132
        0x00002504:    000c000c    ....    DCD    786444
        0x00002508:    02180418    ....    DCD    35128344
        0x0000250c:    000001e0    ....    DCD    480
        0x00002510:    00000000    ....    DCD    0
        0x00002514:    00000000    ....    DCD    0
        0x00002518:    00000000    ....    DCD    0
        0x0000251c:    03c00000    ....    DCD    62914560
        0x00002520:    06300660    `.0.    DCD    103810656
        0x00002524:    00300030    0.0.    DCD    3145776
        0x00002528:    003001fe    ..0.    DCD    3146238
        0x0000252c:    00300030    0.0.    DCD    3145776
        0x00002530:    00300030    0.0.    DCD    3145776
        0x00002534:    00300030    0.0.    DCD    3145776
        0x00002538:    00300030    0.0.    DCD    3145776
        0x0000253c:    000001fc    ....    DCD    508
        0x00002540:    00000000    ....    DCD    0
        0x00002544:    00000000    ....    DCD    0
        0x00002548:    00000000    ....    DCD    0
        0x0000254c:    00000000    ....    DCD    0
        0x00002550:    00000000    ....    DCD    0
        0x00002554:    00000000    ....    DCD    0
        0x00002558:    06d807f0    ....    DCD    114821104
        0x0000255c:    018c018c    ....    DCD    25952652
        0x00002560:    0198018c    ....    DCD    26739084
        0x00002564:    000c00f8    ....    DCD    786680
        0x00002568:    03cc00fc    ....    DCD    63701244
        0x0000256c:    03060306    ....    DCD    50725638
        0x00002570:    00f8038e    ....    DCD    16253838
        0x00002574:    00000000    ....    DCD    0
        0x00002578:    00000000    ....    DCD    0
        0x0000257c:    000e0008    ....    DCD    917512
        0x00002580:    000c000c    ....    DCD    786444
        0x00002584:    000c000c    ....    DCD    786444
        0x00002588:    031c01ec    ....    DCD    52167148
        0x0000258c:    030c030c    ....    DCD    51118860
        0x00002590:    030c030c    ....    DCD    51118860
        0x00002594:    030c030c    ....    DCD    51118860
        0x00002598:    030c030c    ....    DCD    51118860
        0x0000259c:    0000079e    ....    DCD    1950
        0x000025a0:    00000000    ....    DCD    0
        0x000025a4:    00000000    ....    DCD    0
        0x000025a8:    00000000    ....    DCD    0
        0x000025ac:    00600000    ..`.    DCD    6291456
        0x000025b0:    00000060    `...    DCD    96
        0x000025b4:    00400000    ..@.    DCD    4194304
        0x000025b8:    0060007c    |.`.    DCD    6291580
        0x000025bc:    00600060    `.`.    DCD    6291552
        0x000025c0:    00600060    `.`.    DCD    6291552
        0x000025c4:    00600060    `.`.    DCD    6291552
        0x000025c8:    00600060    `.`.    DCD    6291552
        0x000025cc:    000003fc    ....    DCD    1020
        0x000025d0:    00000000    ....    DCD    0
        0x000025d4:    00000000    ....    DCD    0
        0x000025d8:    00000000    ....    DCD    0
        0x000025dc:    01c00000    ....    DCD    29360128
        0x000025e0:    000001c0    ....    DCD    448
        0x000025e4:    01000000    ....    DCD    16777216
        0x000025e8:    018001f0    ....    DCD    25166320
        0x000025ec:    01800180    ....    DCD    25166208
        0x000025f0:    01800180    ....    DCD    25166208
        0x000025f4:    01800180    ....    DCD    25166208
        0x000025f8:    01800180    ....    DCD    25166208
        0x000025fc:    01800180    ....    DCD    25166208
        0x00002600:    007c00cc    ..|.    DCD    8126668
        0x00002604:    00000000    ....    DCD    0
        0x00002608:    00000000    ....    DCD    0
        0x0000260c:    000e0008    ....    DCD    917512
        0x00002610:    000c000c    ....    DCD    786444
        0x00002614:    000c000c    ....    DCD    786444
        0x00002618:    008c038c    ....    DCD    9175948
        0x0000261c:    004c008c    ..L.    DCD    4980876
        0x00002620:    005c006c    l.\.    DCD    6029420
        0x00002624:    018c008c    ....    DCD    25952396
        0x00002628:    030c010c    ....    DCD    51118348
        0x0000262c:    0000079e    ....    DCD    1950
        0x00002630:    00000000    ....    DCD    0
        0x00002634:    00000000    ....    DCD    0
        0x00002638:    00000000    ....    DCD    0
        0x0000263c:    007c0040    @.|.    DCD    8126528
        0x00002640:    00600060    `.`.    DCD    6291552
        0x00002644:    00600060    `.`.    DCD    6291552
        0x00002648:    00600060    `.`.    DCD    6291552
        0x0000264c:    00600060    `.`.    DCD    6291552
        0x00002650:    00600060    `.`.    DCD    6291552
        0x00002654:    00600060    `.`.    DCD    6291552
        0x00002658:    00600060    `.`.    DCD    6291552
        0x0000265c:    000003fc    ....    DCD    1020
        0x00002660:    00000000    ....    DCD    0
        0x00002664:    00000000    ....    DCD    0
        0x00002668:    00000000    ....    DCD    0
        0x0000266c:    00000000    ....    DCD    0
        0x00002670:    00000000    ....    DCD    0
        0x00002674:    00000000    ....    DCD    0
        0x00002678:    06ee0737    7...    DCD    116262711
        0x0000267c:    06660666    f.f.    DCD    107349606
        0x00002680:    06660666    f.f.    DCD    107349606
        0x00002684:    06660666    f.f.    DCD    107349606
        0x00002688:    06660666    f.f.    DCD    107349606
        0x0000268c:    00000fff    ....    DCD    4095
        0x00002690:    00000000    ....    DCD    0
        0x00002694:    00000000    ....    DCD    0
        0x00002698:    00000000    ....    DCD    0
        0x0000269c:    00000000    ....    DCD    0
        0x000026a0:    00000000    ....    DCD    0
        0x000026a4:    00000000    ....    DCD    0
        0x000026a8:    031c01ee    ....    DCD    52167150
        0x000026ac:    030c030c    ....    DCD    51118860
        0x000026b0:    030c030c    ....    DCD    51118860
        0x000026b4:    030c030c    ....    DCD    51118860
        0x000026b8:    030c030c    ....    DCD    51118860
        0x000026bc:    0000079e    ....    DCD    1950
        0x000026c0:    00000000    ....    DCD    0
        0x000026c4:    00000000    ....    DCD    0
        0x000026c8:    00000000    ....    DCD    0
        0x000026cc:    00000000    ....    DCD    0
        0x000026d0:    00000000    ....    DCD    0
        0x000026d4:    00000000    ....    DCD    0
        0x000026d8:    019800f0    ....    DCD    26738928
        0x000026dc:    0606030c    ....    DCD    101057292
        0x000026e0:    06060606    ....    DCD    101058054
        0x000026e4:    06060606    ....    DCD    101058054
        0x000026e8:    030c030c    ....    DCD    51118860
        0x000026ec:    000000f0    ....    DCD    240
        0x000026f0:    00000000    ....    DCD    0
        0x000026f4:    00000000    ....    DCD    0
        0x000026f8:    00000000    ....    DCD    0
        0x000026fc:    00000000    ....    DCD    0
        0x00002700:    00000000    ....    DCD    0
        0x00002704:    00000000    ....    DCD    0
        0x00002708:    031c01ee    ....    DCD    52167150
        0x0000270c:    060c060c    ....    DCD    101451276
        0x00002710:    060c060c    ....    DCD    101451276
        0x00002714:    060c060c    ....    DCD    101451276
        0x00002718:    031c030c    ....    DCD    52167436
        0x0000271c:    000c01ec    ....    DCD    786924
        0x00002720:    003e000c    ..>.    DCD    4063244
        0x00002724:    00000000    ....    DCD    0
        0x00002728:    00000000    ....    DCD    0
        0x0000272c:    00000000    ....    DCD    0
        0x00002730:    00000000    ....    DCD    0
        0x00002734:    00000000    ....    DCD    0
        0x00002738:    038c0278    x...    DCD    59507320
        0x0000273c:    0306030c    ....    DCD    50725644
        0x00002740:    03060306    ....    DCD    50725638
        0x00002744:    03060306    ....    DCD    50725638
        0x00002748:    038c0304    ....    DCD    59507460
        0x0000274c:    03000378    x...    DCD    50332536
        0x00002750:    07c00300    ....    DCD    130024192
        0x00002754:    00000000    ....    DCD    0
        0x00002758:    00000000    ....    DCD    0
        0x0000275c:    00000000    ....    DCD    0
        0x00002760:    00000000    ....    DCD    0
        0x00002764:    00000000    ....    DCD    0
        0x00002768:    0658039f    ..X.    DCD    106431391
        0x0000276c:    00180638    8...    DCD    1574456
        0x00002770:    00180018    ....    DCD    1572888
        0x00002774:    00180018    ....    DCD    1572888
        0x00002778:    00180018    ....    DCD    1572888
        0x0000277c:    000000ff    ....    DCD    255
        0x00002780:    00000000    ....    DCD    0
        0x00002784:    00000000    ....    DCD    0
        0x00002788:    00000000    ....    DCD    0
        0x0000278c:    00000000    ....    DCD    0
        0x00002790:    00000000    ....    DCD    0
        0x00002794:    00000000    ....    DCD    0
        0x00002798:    031c03f0    ....    DCD    52167664
        0x0000279c:    020c020c    ....    DCD    34341388
        0x000027a0:    00f00038    8...    DCD    15728696
        0x000027a4:    030403c0    ....    DCD    50594752
        0x000027a8:    038c0304    ....    DCD    59507460
        0x000027ac:    000001fc    ....    DCD    508
        0x000027b0:    00000000    ....    DCD    0
        0x000027b4:    00000000    ....    DCD    0
        0x000027b8:    00000000    ....    DCD    0
        0x000027bc:    00000000    ....    DCD    0
        0x000027c0:    00200020     . .    DCD    2097184
        0x000027c4:    00300030    0.0.    DCD    3145776
        0x000027c8:    003001fe    ..0.    DCD    3146238
        0x000027cc:    00300030    0.0.    DCD    3145776
        0x000027d0:    00300030    0.0.    DCD    3145776
        0x000027d4:    00300030    0.0.    DCD    3145776
        0x000027d8:    02300230    0.0.    DCD    36700720
        0x000027dc:    000001e0    ....    DCD    480
        0x000027e0:    00000000    ....    DCD    0
        0x000027e4:    00000000    ....    DCD    0
        0x000027e8:    00000000    ....    DCD    0
        0x000027ec:    00000000    ....    DCD    0
        0x000027f0:    00000000    ....    DCD    0
        0x000027f4:    02080000    ....    DCD    34078720
        0x000027f8:    030c038e    ....    DCD    51118990
        0x000027fc:    030c030c    ....    DCD    51118860
        0x00002800:    030c030c    ....    DCD    51118860
        0x00002804:    030c030c    ....    DCD    51118860
        0x00002808:    079c030c    ....    DCD    127664908
        0x0000280c:    00000178    x...    DCD    376
        0x00002810:    00000000    ....    DCD    0
        0x00002814:    00000000    ....    DCD    0
        0x00002818:    00000000    ....    DCD    0
        0x0000281c:    00000000    ....    DCD    0
        0x00002820:    00000000    ....    DCD    0
        0x00002824:    00000000    ....    DCD    0
        0x00002828:    020c071e    ....    DCD    34342686
        0x0000282c:    01080108    ....    DCD    17301768
        0x00002830:    00900118    ....    DCD    9437464
        0x00002834:    00b000b0    ....    DCD    11534512
        0x00002838:    00600060    `.`.    DCD    6291552
        0x0000283c:    00000020     ...    DCD    32
        0x00002840:    00000000    ....    DCD    0
        0x00002844:    00000000    ....    DCD    0
        0x00002848:    00000000    ....    DCD    0
        0x0000284c:    00000000    ....    DCD    0
        0x00002850:    00000000    ....    DCD    0
        0x00002854:    00000000    ....    DCD    0
        0x00002858:    04620ef7    ..b.    DCD    73535223
        0x0000285c:    02640446    F.d.    DCD    40109126
        0x00002860:    02ec0264    d...    DCD    49021540
        0x00002864:    0198019c    ....    DCD    26739100
        0x00002868:    01980198    ....    DCD    26739096
        0x0000286c:    00000008    ....    DCD    8
        0x00002870:    00000000    ....    DCD    0
        0x00002874:    00000000    ....    DCD    0
        0x00002878:    00000000    ....    DCD    0
        0x0000287c:    00000000    ....    DCD    0
        0x00002880:    00000000    ....    DCD    0
        0x00002884:    00000000    ....    DCD    0
        0x00002888:    011807bc    ....    DCD    18352060
        0x0000288c:    00b00110    ....    DCD    11534608
        0x00002890:    00600060    `.`.    DCD    6291552
        0x00002894:    009000e0    ....    DCD    9437408
        0x00002898:    03080108    ....    DCD    50856200
        0x0000289c:    0000079e    ....    DCD    1950
        0x000028a0:    00000000    ....    DCD    0
        0x000028a4:    00000000    ....    DCD    0
        0x000028a8:    00000000    ....    DCD    0
        0x000028ac:    00000000    ....    DCD    0
        0x000028b0:    00000000    ....    DCD    0
        0x000028b4:    00000000    ....    DCD    0
        0x000028b8:    0108079e    ....    DCD    17303454
        0x000028bc:    01080108    ....    DCD    17301768
        0x000028c0:    00900090    ....    DCD    9437328
        0x000028c4:    006000b0    ..`.    DCD    6291632
        0x000028c8:    00600060    `.`.    DCD    6291552
        0x000028cc:    00200020     . .    DCD    2097184
        0x000028d0:    001c0024    $...    DCD    1835044
        0x000028d4:    00000000    ....    DCD    0
        0x000028d8:    00000000    ....    DCD    0
        0x000028dc:    00000000    ....    DCD    0
        0x000028e0:    00000000    ....    DCD    0
        0x000028e4:    00000000    ....    DCD    0
        0x000028e8:    018401fc    ....    DCD    25428476
        0x000028ec:    004400c4    ..D.    DCD    4456644
        0x000028f0:    00200060    `. .    DCD    2097248
        0x000028f4:    02180030    0...    DCD    35127344
        0x000028f8:    030c0208    ....    DCD    51118600
        0x000028fc:    000001fc    ....    DCD    508
        0x00002900:    00000000    ....    DCD    0
        0x00002904:    00000000    ....    DCD    0
        0x00002908:    00800300    ....    DCD    8389376
        0x0000290c:    00800080    ....    DCD    8388736
        0x00002910:    00800080    ....    DCD    8388736
        0x00002914:    00800080    ....    DCD    8388736
        0x00002918:    00400080    ..@.    DCD    4194432
        0x0000291c:    00400020     .@.    DCD    4194336
        0x00002920:    00800080    ....    DCD    8388736
        0x00002924:    00800080    ....    DCD    8388736
        0x00002928:    00800080    ....    DCD    8388736
        0x0000292c:    00800080    ....    DCD    8388736
        0x00002930:    00000300    ....    DCD    768
        0x00002934:    00400040    @.@.    DCD    4194368
        0x00002938:    00400040    @.@.    DCD    4194368
        0x0000293c:    00400040    @.@.    DCD    4194368
        0x00002940:    00400040    @.@.    DCD    4194368
        0x00002944:    00400040    @.@.    DCD    4194368
        0x00002948:    00400040    @.@.    DCD    4194368
        0x0000294c:    00400040    @.@.    DCD    4194368
        0x00002950:    00400040    @.@.    DCD    4194368
        0x00002954:    00400040    @.@.    DCD    4194368
        0x00002958:    00400040    @.@.    DCD    4194368
        0x0000295c:    00400040    @.@.    DCD    4194368
        0x00002960:    00400040    @.@.    DCD    4194368
        0x00002964:    00000000    ....    DCD    0
        0x00002968:    0010000c    ....    DCD    1048588
        0x0000296c:    00100010    ....    DCD    1048592
        0x00002970:    00100010    ....    DCD    1048592
        0x00002974:    00100010    ....    DCD    1048592
        0x00002978:    00200010    .. .    DCD    2097168
        0x0000297c:    00200040    @. .    DCD    2097216
        0x00002980:    00100010    ....    DCD    1048592
        0x00002984:    00100010    ....    DCD    1048592
        0x00002988:    00100010    ....    DCD    1048592
        0x0000298c:    00100010    ....    DCD    1048592
        0x00002990:    0000000c    ....    DCD    12
        0x00002994:    001c0000    ....    DCD    1835008
        0x00002998:    04c20422    "...    DCD    79823906
        0x0000299c:    00000380    ....    DCD    896
        0x000029a0:    00000000    ....    DCD    0
        0x000029a4:    00000000    ....    DCD    0
        0x000029a8:    00000000    ....    DCD    0
        0x000029ac:    00000000    ....    DCD    0
        0x000029b0:    00000000    ....    DCD    0
        0x000029b4:    00000000    ....    DCD    0
        0x000029b8:    00000000    ....    DCD    0
        0x000029bc:    00000000    ....    DCD    0
        0x000029c0:    00000000    ....    DCD    0
    tfont12
        0x000029c4:    0020d0d6    .. .    DCD    2150614
        0x000029c8:    00200020     . .    DCD    2097184
        0x000029cc:    022203fe    ..".    DCD    35783678
        0x000029d0:    02220222    ".".    DCD    35783202
        0x000029d4:    022203fe    ..".    DCD    35783678
        0x000029d8:    00200020     . .    DCD    2097184
        0x000029dc:    b0be0020     ...    DCD    2965241888
        0x000029e0:    010401fc    ....    DCD    17039868
        0x000029e4:    010401fc    ....    DCD    17039868
        0x000029e8:    002001fc    .. .    DCD    2097660
        0x000029ec:    010407ff    ....    DCD    17041407
        0x000029f0:    002001fc    .. .    DCD    2097660
        0x000029f4:    02320124    $.2.    DCD    36831524
        0x000029f8:    07feb0d4    ....    DCD    134131924
        0x000029fc:    04fa0402    ....    DCD    83493890
        0x00002a00:    04020402    ....    DCD    67240962
        0x00002a04:    045205fe    ..R.    DCD    72484350
        0x00002a08:    054a0452    R.J.    DCD    88736850
        0x00002a0c:    04020586    ....    DCD    67241350
        0x00002a10:    e7b507fe    ....    DCD    3887400958
        0x00002a14:    00100010    ....    DCD    1048592
        0x00002a18:    011101ff    ....    DCD    17891839
        0x00002a1c:    01ff0111    ....    DCD    33489169
        0x00002a20:    01110111    ....    DCD    17891601
        0x00002a24:    041101ff    ....    DCD    68223487
        0x00002a28:    07e00410    ....    DCD    132121616
        0x00002a2c:    0000d3d7    ....    DCD    54231
        0x00002a30:    008001fc    ....    DCD    8389116
        0x00002a34:    00200040    @. .    DCD    2097216
        0x00002a38:    07ff0020     ...    DCD    134152224
        0x00002a3c:    00200020     . .    DCD    2097184
        0x00002a40:    00200020     . .    DCD    2097184
        0x00002a44:    0038        8.      DCW    56
    tfont16
        0x00002a46:    d0d6        ..      DCW    53462
        0x00002a48:    00800080    ....    DCD    8388736
        0x00002a4c:    00800080    ....    DCD    8388736
        0x00002a50:    10841ffc    ....    DCD    277094396
        0x00002a54:    10841084    ....    DCD    277090436
        0x00002a58:    10841084    ....    DCD    277090436
        0x00002a5c:    10841ffc    ....    DCD    277094396
        0x00002a60:    00800080    ....    DCD    8388736
        0x00002a64:    00800080    ....    DCD    8388736
        0x00002a68:    0ff8b0be    ....    DCD    267956414
        0x00002a6c:    0ff80808    ....    DCD    267913224
        0x00002a70:    0ff80808    ....    DCD    267913224
        0x00002a74:    7fff0080    ....    DCD    2147418240
        0x00002a78:    0ff80000    ....    DCD    267911168
        0x00002a7c:    08080808    ....    DCD    134744072
        0x00002a80:    00800ff8    ....    DCD    8392696
        0x00002a84:    20a21084    ...     DCD    547491972
        0x00002a88:    b0d40040    @...    DCD    2966683712
        0x00002a8c:    3ffe0000    ...?    DCD    1073610752
        0x00002a90:    27f22002    . .'    DCD    670179330
        0x00002a94:    20022002    . .     DCD    537010178
        0x00002a98:    21222ffa    ./"!    DCD    555888634
        0x00002a9c:    21222122    "!"!    DCD    555884834
        0x00002aa0:    29122912    .).)    DCD    689056018
        0x00002aa4:    20022e0a    ...     DCD    537013770
        0x00002aa8:    20023ffe    .?.     DCD    537018366
        0x00002aac:    0080e7b5    ....    DCD    8447925
        0x00002ab0:    00800080    ....    DCD    8388736
        0x00002ab4:    10841ffc    ....    DCD    277094396
        0x00002ab8:    10841084    ....    DCD    277090436
        0x00002abc:    10841ffc    ....    DCD    277094396
        0x00002ac0:    10841084    ....    DCD    277090436
        0x00002ac4:    50841ffc    ...P    DCD    1350836220
        0x00002ac8:    40804080    .@.@    DCD    1082146944
        0x00002acc:    d3d77f00    ....    DCD    3554115328
        0x00002ad0:    1ffe0000    ....    DCD    536739840
        0x00002ad4:    04000800    ....    DCD    67110912
        0x00002ad8:    01800200    ....    DCD    25166336
        0x00002adc:    7fff0080    ....    DCD    2147418240
        0x00002ae0:    00800080    ....    DCD    8388736
        0x00002ae4:    00800080    ....    DCD    8388736
        0x00002ae8:    00800080    ....    DCD    8388736
        0x00002aec:    004000a0    ..@.    DCD    4194464
    tfont24
        0x00002af0:    0000d0d6    ....    DCD    53462
        0x00002af4:    00000000    ....    DCD    0
        0x00002af8:    00001800    ....    DCD    6144
        0x00002afc:    08000008    ....    DCD    134217736
        0x00002b00:    00080000    ....    DCD    524288
        0x00002b04:    f8180808    ....    DCD    4162324488
        0x00002b08:    08181fff    ....    DCD    135798783
        0x00002b0c:    18081818    ....    DCD    403183640
        0x00002b10:    18180818    ....    DCD    404228120
        0x00002b14:    08181808    ....    DCD    135796744
        0x00002b18:    18081818    ....    DCD    403183640
        0x00002b1c:    081ffff8    ....    DCD    136314872
        0x00002b20:    08000808    ....    DCD    134219784
        0x00002b24:    00080000    ....    DCD    524288
        0x00002b28:    00000800    ....    DCD    2048
        0x00002b2c:    18000008    ....    DCD    402653192
        0x00002b30:    00180000    ....    DCD    1572864
        0x00002b34:    00001800    ....    DCD    6144
        0x00002b38:    b0be0000    ....    DCD    2965241856
        0x00002b3c:    00000000    ....    DCD    0
        0x00002b40:    00400000    ..@.    DCD    4194304
        0x00002b44:    07ffc006    ....    DCD    134201350
        0x00002b48:    c0060040    @...    DCD    3221618752
        0x00002b4c:    004007ff    ..@.    DCD    4196351
        0x00002b50:    07ffc006    ....    DCD    134201350
        0x00002b54:    00020840    @...    DCD    133184
        0x00002b58:    fffe0030    0...    DCD    4294836272
        0x00002b5c:    0000003f    ?...    DCD    63
        0x00002b60:    c007ffc0    ....    DCD    3221749696
        0x00002b64:    00c00200    ....    DCD    12583424
        0x00002b68:    0200c002    ....    DCD    33603586
        0x00002b6c:    8003ffc0    ....    DCD    2147745728
        0x00002b70:    11800010    ....    DCD    293601296
        0x00002b74:    0e106001    .`..    DCD    235954177
        0x00002b78:    0c181030    0...    DCD    202903600
        0x00002b7c:    1c00301e    .0..    DCD    469774366
        0x00002b80:    00000000    ....    DCD    0
        0x00002b84:    0000b0d4    ....    DCD    45268
        0x00002b88:    00000000    ....    DCD    0
        0x00002b8c:    f8300008    ..0.    DCD    4163895304
        0x00002b90:    00081fff    ....    DCD    532479
        0x00002b94:    10c00810    ....    DCD    281020432
        0x00002b98:    08103f08    .?..    DCD    135282440
        0x00002b9c:    00081000    ....    DCD    528384
        0x00002ba0:    13000810    ....    DCD    318769168
        0x00002ba4:    0810ffc8    ....    DCD    135331784
        0x00002ba8:    22081022    ".."    DCD    570953762
        0x00002bac:    10220810    ..".    DCD    270665744
        0x00002bb0:    08102208    ."..    DCD    135275016
        0x00002bb4:    21081221    !..!    DCD    554177057
        0x00002bb8:    16608814    ..`.    DCD    375425044
        0x00002bbc:    2813c048    H..(    DCD    672383048
        0x00002bc0:    00081000    ....    DCD    528384
        0x00002bc4:    1ffff810    ....    DCD    536868880
        0x00002bc8:    00100008    ....    DCD    1048584
        0x00002bcc:    e7b50000    ....    DCD    3887398912
        0x00002bd0:    00000000    ....    DCD    0
        0x00002bd4:    18000000    ....    DCD    402653184
        0x00002bd8:    00080000    ....    DCD    524288
        0x00002bdc:    00000800    ....    DCD    2048
        0x00002be0:    fff00008    ....    DCD    4293918728
        0x00002be4:    0408100f    ....    DCD    67637263
        0x00002be8:    10040810    ....    DCD    268699664
        0x00002bec:    08100408    ....    DCD    135267336
        0x00002bf0:    07fff004    ....    DCD    134213636
        0x00002bf4:    10040810    ....    DCD    268699664
        0x00002bf8:    08100408    ....    DCD    135267336
        0x00002bfc:    04081004    ....    DCD    67637252
        0x00002c00:    1007fff0    ....    DCD    268959728
        0x00002c04:    08000008    ....    DCD    134217736
        0x00002c08:    10080010    ....    DCD    268959760
        0x00002c0c:    00200800    .. .    DCD    2099200
        0x00002c10:    f0003018    .0..    DCD    4026544152
        0x00002c14:    0000001f    ....    DCD    31
        0x00002c18:    0000d3d7    ....    DCD    54231
        0x00002c1c:    00000000    ....    DCD    0
        0x00002c20:    f0040000    ....    DCD    4026793984
        0x00002c24:    00000fff    ....    DCD    4095
        0x00002c28:    01000006    ....    DCD    16777222
        0x00002c2c:    0000c000    ....    DCD    49152
        0x00002c30:    18000028    (...    DCD    402653224
        0x00002c34:    00180000    ....    DCD    1572864
        0x00002c38:    fe301800    ..0.    DCD    4264564736
        0x00002c3c:    18007fff    ....    DCD    402685951
        0x00002c40:    00180000    ....    DCD    1572864
        0x00002c44:    00001800    ....    DCD    6144
        0x00002c48:    18000018    ....    DCD    402653208
        0x00002c4c:    00180000    ....    DCD    1572864
        0x00002c50:    00001800    ....    DCD    6144
        0x00002c54:    18000018    ....    DCD    402653208
        0x00002c58:    001f0000    ....    DCD    2031616
        0x00002c5c:    00000c00    ....    DCD    3072
        0x00002c60:    0000        ..      DCW    0
    tfont32
        0x00002c62:    d0d6        ..      DCW    53462
        0x00002c64:    00000000    ....    DCD    0
        0x00002c68:    00000000    ....    DCD    0
        0x00002c6c:    00008000    ....    DCD    32768
        0x00002c70:    00018000    ....    DCD    98304
        0x00002c74:    00018000    ....    DCD    98304
        0x00002c78:    00018000    ....    DCD    98304
        0x00002c7c:    00018000    ....    DCD    98304
        0x00002c80:    00018000    ....    DCD    98304
        0x00002c84:    0c018010    ....    DCD    201424912
        0x00002c88:    0ffffff0    ....    DCD    268435440
        0x00002c8c:    04018030    0...    DCD    67207216
        0x00002c90:    04018030    0...    DCD    67207216
        0x00002c94:    04018030    0...    DCD    67207216
        0x00002c98:    04018030    0...    DCD    67207216
        0x00002c9c:    04018030    0...    DCD    67207216
        0x00002ca0:    04018030    0...    DCD    67207216
        0x00002ca4:    04018030    0...    DCD    67207216
        0x00002ca8:    04018030    0...    DCD    67207216
        0x00002cac:    07fffff0    ....    DCD    134217712
        0x00002cb0:    04018030    0...    DCD    67207216
        0x00002cb4:    04018030    0...    DCD    67207216
        0x00002cb8:    00018000    ....    DCD    98304
        0x00002cbc:    00018000    ....    DCD    98304
        0x00002cc0:    00018000    ....    DCD    98304
        0x00002cc4:    00018000    ....    DCD    98304
        0x00002cc8:    00018000    ....    DCD    98304
        0x00002ccc:    00018000    ....    DCD    98304
        0x00002cd0:    00018000    ....    DCD    98304
        0x00002cd4:    00018000    ....    DCD    98304
        0x00002cd8:    00018000    ....    DCD    98304
        0x00002cdc:    00008000    ....    DCD    32768
        0x00002ce0:    00000000    ....    DCD    0
        0x00002ce4:    0000b0be    ....    DCD    45246
        0x00002ce8:    00000000    ....    DCD    0
        0x00002cec:    00000000    ....    DCD    0
        0x00002cf0:    01000000    ....    DCD    16777216
        0x00002cf4:    ff000180    ....    DCD    4278190464
        0x00002cf8:    030001ff    ....    DCD    50332159
        0x00002cfc:    03000180    ....    DCD    50332032
        0x00002d00:    ff000180    ....    DCD    4278190464
        0x00002d04:    030001ff    ....    DCD    50332159
        0x00002d08:    03000180    ....    DCD    50332032
        0x00002d0c:    ff000180    ....    DCD    4278190464
        0x00002d10:    810001ff    ....    DCD    2164261375
        0x00002d14:    00000081    ....    DCD    129
        0x00002d18:    00000003    ....    DCD    3
        0x00002d1c:    fffc1c03    ....    DCD    4294712323
        0x00002d20:    00003fff    .?..    DCD    16383
        0x00002d24:    03000040    @...    DCD    50331712
        0x00002d28:    ff0001c0    ....    DCD    4278190528
        0x00002d2c:    030001ff    ....    DCD    50332159
        0x00002d30:    030000c0    ....    DCD    50331840
        0x00002d34:    030000c0    ....    DCD    50331840
        0x00002d38:    ff0000c0    ....    DCD    4278190272
        0x00002d3c:    010000ff    ....    DCD    16777471
        0x00002d40:    04000041    A...    DCD    67108929
        0x00002d44:    0e000001    ....    DCD    234881025
        0x00002d48:    07000071    q...    DCD    117440625
        0x00002d4c:    01800181    ....    DCD    25166209
        0x00002d50:    00600701    ..`.    DCD    6293249
        0x00002d54:    98180e01    ....    DCD    2551713281
        0x00002d58:    e0041c01    ....    DCD    3758365697
        0x00002d5c:    c0001801    ....    DCD    3221231617
        0x00002d60:    00000000    ....    DCD    0
        0x00002d64:    b0d40000    ....    DCD    2966683648
        0x00002d68:    00000000    ....    DCD    0
        0x00002d6c:    00000000    ....    DCD    0
        0x00002d70:    08000000    ....    DCD    134217728
        0x00002d74:    1ffffff0    ....    DCD    536870896
        0x00002d78:    0c000030    0...    DCD    201326640
        0x00002d7c:    0c000030    0...    DCD    201326640
        0x00002d80:    0c100030    0...    DCD    202375216
        0x00002d84:    0c3ffe30    0.?.    DCD    205520432
        0x00002d88:    0c000430    0...    DCD    201327664
        0x00002d8c:    0c000030    0...    DCD    201326640
        0x00002d90:    0c000030    0...    DCD    201326640
        0x00002d94:    0c000030    0...    DCD    201326640
        0x00002d98:    0cc00030    0...    DCD    213909552
        0x00002d9c:    0dfffff0    ....    DCD    234881008
        0x00002da0:    0e063030    00..    DCD    235286576
        0x00002da4:    0c063030    00..    DCD    201732144
        0x00002da8:    0c061030    0...    DCD    201723952
        0x00002dac:    0c061030    0...    DCD    201723952
        0x00002db0:    0c061030    0...    DCD    201723952
        0x00002db4:    0c861830    0...    DCD    210114608
        0x00002db8:    0c861830    0...    DCD    210114608
        0x00002dbc:    0d060830    0...    DCD    218499120
        0x00002dc0:    0d860c30    0...    DCD    226888752
        0x00002dc4:    0fee0630    0...    DCD    267257392
        0x00002dc8:    0dfc0230    0...    DCD    234619440
        0x00002dcc:    0c000130    0...    DCD    201326896
        0x00002dd0:    0c0000f0    ....    DCD    201326832
        0x00002dd4:    0c000030    0...    DCD    201326640
        0x00002dd8:    0ffffff0    ....    DCD    268435440
        0x00002ddc:    0c000030    0...    DCD    201326640
        0x00002de0:    04000010    ....    DCD    67108880
        0x00002de4:    00000000    ....    DCD    0
        0x00002de8:    0000e7b5    ....    DCD    59317
        0x00002dec:    00000000    ....    DCD    0
        0x00002df0:    c0000000    ....    DCD    3221225472
        0x00002df4:    c0000000    ....    DCD    3221225472
        0x00002df8:    c0000001    ....    DCD    3221225473
        0x00002dfc:    c0000000    ....    DCD    3221225472
        0x00002e00:    c0000000    ....    DCD    3221225472
        0x00002e04:    c0000000    ....    DCD    3221225472
        0x00002e08:    ffe00000    ....    DCD    4292870144
        0x00002e0c:    c06003ff    ..`.    DCD    3227517951
        0x00002e10:    c0600300    ..`.    DCD    3227517696
        0x00002e14:    c0600300    ..`.    DCD    3227517696
        0x00002e18:    c0600300    ..`.    DCD    3227517696
        0x00002e1c:    c0600300    ..`.    DCD    3227517696
        0x00002e20:    c0600300    ..`.    DCD    3227517696
        0x00002e24:    ffe00300    ....    DCD    4292870912
        0x00002e28:    c06003ff    ..`.    DCD    3227517951
        0x00002e2c:    c0600300    ..`.    DCD    3227517696
        0x00002e30:    c0600300    ..`.    DCD    3227517696
        0x00002e34:    c0600300    ..`.    DCD    3227517696
        0x00002e38:    c0600300    ..`.    DCD    3227517696
        0x00002e3c:    ffe00300    ....    DCD    4292870912
        0x00002e40:    c06003ff    ..`.    DCD    3227517951
        0x00002e44:    c0600100    ..`.    DCD    3227517184
        0x00002e48:    c0000000    ....    DCD    3221225472
        0x00002e4c:    c0000800    ....    DCD    3221227520
        0x00002e50:    c0001000    ....    DCD    3221229568
        0x00002e54:    c0001000    ....    DCD    3221229568
        0x00002e58:    c0001800    ....    DCD    3221231616
        0x00002e5c:    80003801    .8..    DCD    2147497985
        0x00002e60:    00001fff    ....    DCD    8191
        0x00002e64:    00000000    ....    DCD    0
        0x00002e68:    d3d70000    ....    DCD    3554082816
        0x00002e6c:    00000000    ....    DCD    0
        0x00002e70:    00000000    ....    DCD    0
        0x00002e74:    00000000    ....    DCD    0
        0x00002e78:    03000000    ....    DCD    50331648
        0x00002e7c:    07ffffc0    ....    DCD    134217664
        0x00002e80:    07800000    ....    DCD    125829120
        0x00002e84:    00c00000    ....    DCD    12582912
        0x00002e88:    00600000    ..`.    DCD    6291456
        0x00002e8c:    00180000    ....    DCD    1572864
        0x00002e90:    000c0000    ....    DCD    786432
        0x00002e94:    00038000    ....    DCD    229376
        0x00002e98:    00038000    ....    DCD    229376
        0x00002e9c:    00018000    ....    DCD    98304
        0x00002ea0:    08018000    ....    DCD    134316032
        0x00002ea4:    1c018000    ....    DCD    469860352
        0x00002ea8:    3ffffffc    ...?    DCD    1073741820
        0x00002eac:    00018000    ....    DCD    98304
        0x00002eb0:    00018000    ....    DCD    98304
        0x00002eb4:    00018000    ....    DCD    98304
        0x00002eb8:    00018000    ....    DCD    98304
        0x00002ebc:    00018000    ....    DCD    98304
        0x00002ec0:    00018000    ....    DCD    98304
        0x00002ec4:    00018000    ....    DCD    98304
        0x00002ec8:    00018000    ....    DCD    98304
        0x00002ecc:    00018000    ....    DCD    98304
        0x00002ed0:    00018000    ....    DCD    98304
        0x00002ed4:    00018000    ....    DCD    98304
        0x00002ed8:    00018000    ....    DCD    98304
        0x00002edc:    0001fc00    ....    DCD    130048
        0x00002ee0:    0000e000    ....    DCD    57344
        0x00002ee4:    00004000    .@..    DCD    16384
        0x00002ee8:    00000000    ....    DCD    0
    Region$$Table$$Base
        0x00002eec:    00002f0c    ./..    DCD    12044
        0x00002ef0:    20000000    ...     DCD    536870912
        0x00002ef4:    00000010    ....    DCD    16
        0x00002ef8:    00000f98    ....    DCD    3992
        0x00002efc:    00002f1c    ./..    DCD    12060
        0x00002f00:    20000010    ...     DCD    536870928
        0x00002f04:    00000200    ....    DCD    512
        0x00002f08:    00000fa8    ....    DCD    4008
    Region$$Table$$Limit

** Section #2 'ER_RW' (SHT_PROGBITS) [SHF_ALLOC + SHF_WRITE]
    Size   : 16 bytes (alignment 4)
    Address: 0x20000000


** Section #3 'ER_ZI' (SHT_NOBITS) [SHF_ALLOC + SHF_WRITE]
    Size   : 512 bytes (alignment 8)
    Address: 0x20000010


** Section #4 '.debug_abbrev' (SHT_PROGBITS)
    Size   : 1476 bytes


** Section #5 '.debug_frame' (SHT_PROGBITS)
    Size   : 1580 bytes


** Section #6 '.debug_info' (SHT_PROGBITS)
    Size   : 21564 bytes


** Section #7 '.debug_line' (SHT_PROGBITS)
    Size   : 7968 bytes


** Section #8 '.debug_loc' (SHT_PROGBITS)
    Size   : 7440 bytes


** Section #9 '.debug_macinfo' (SHT_PROGBITS)
    Size   : 64592 bytes


** Section #10 '.debug_pubnames' (SHT_PROGBITS)
    Size   : 1411 bytes


** Section #11 '.symtab' (SHT_SYMTAB)
    Size   : 5184 bytes (alignment 4)
    String table #12 '.strtab'
    Last local symbol no. 186


** Section #12 '.strtab' (SHT_STRTAB)
    Size   : 4244 bytes


** Section #13 '.note' (SHT_NOTE)
    Size   : 28 bytes (alignment 4)


** Section #14 '.comment' (SHT_PROGBITS)
    Size   : 10788 bytes


** Section #15 '.shstrtab' (SHT_STRTAB)
    Size   : 156 bytes


